Platform: qemu

target/riscv64gc-unknown-none-elf/release/os:     file format elf64-littleriscv


Disassembly of section .text:

0000000080200000 <_start>:
    80200000:	00027117          	auipc	sp,0x27
    80200004:	00010113          	mv	sp,sp
    80200008:	00005097          	auipc	ra,0x5
    8020000c:	3da080e7          	jalr	986(ra) # 802053e2 <rust_main>
	...

0000000080201000 <_ZN5alloc11collections5btree4node210Handle$LT$alloc..collections..btree..node..NodeRef$LT$alloc..collections..btree..node..marker..Mut$C$K$C$V$C$alloc..collections..btree..node..marker..Leaf$GT$$C$alloc..collections..btree..node..marker..Edge$GT$16insert_recursing17hed45043bfddf607fE>:
    80201000:	7145                	addi	sp,sp,-464
    80201002:	e786                	sd	ra,456(sp)
    80201004:	e3a2                	sd	s0,448(sp)
    80201006:	ff26                	sd	s1,440(sp)
    80201008:	fb4a                	sd	s2,432(sp)
    8020100a:	f74e                	sd	s3,424(sp)
    8020100c:	f352                	sd	s4,416(sp)
    8020100e:	ef56                	sd	s5,408(sp)
    80201010:	eb5a                	sd	s6,400(sp)
    80201012:	e75e                	sd	s7,392(sp)
    80201014:	e362                	sd	s8,384(sp)
    80201016:	fee6                	sd	s9,376(sp)
    80201018:	faea                	sd	s10,368(sp)
    8020101a:	f6ee                	sd	s11,360(sp)
    8020101c:	0b80                	addi	s0,sp,464
    8020101e:	0085b903          	ld	s2,8(a1)
    80201022:	0005bc83          	ld	s9,0(a1)
    80201026:	0ba95703          	lhu	a4,186(s2)
    8020102a:	6984                	ld	s1,16(a1)
    8020102c:	45a9                	li	a1,10
    8020102e:	89b6                	mv	s3,a3
    80201030:	8bb2                	mv	s7,a2
    80201032:	e2a43c23          	sd	a0,-456(s0)
    80201036:	00e5ef63          	bltu	a1,a4,80201054 <_ZN5alloc11collections5btree4node210Handle$LT$alloc..collections..btree..node..NodeRef$LT$alloc..collections..btree..node..marker..Mut$C$K$C$V$C$alloc..collections..btree..node..marker..Leaf$GT$$C$alloc..collections..btree..node..marker..Edge$GT$16insert_recursing17hed45043bfddf607fE+0x54>
    8020103a:	00170a13          	addi	s4,a4,1
    8020103e:	00890b13          	addi	s6,s2,8
    80201042:	00148513          	addi	a0,s1,1
    80201046:	00349c13          	slli	s8,s1,0x3
    8020104a:	0ea77e63          	bgeu	a4,a0,80201146 <_ZN5alloc11collections5btree4node210Handle$LT$alloc..collections..btree..node..NodeRef$LT$alloc..collections..btree..node..marker..Mut$C$K$C$V$C$alloc..collections..btree..node..marker..Leaf$GT$$C$alloc..collections..btree..node..marker..Edge$GT$16insert_recursing17hed45043bfddf607fE+0x146>
    8020104e:	06090d13          	addi	s10,s2,96
    80201052:	a22d                	j	8020117c <_ZN5alloc11collections5btree4node210Handle$LT$alloc..collections..btree..node..NodeRef$LT$alloc..collections..btree..node..marker..Mut$C$K$C$V$C$alloc..collections..btree..node..marker..Leaf$GT$$C$alloc..collections..btree..node..marker..Edge$GT$16insert_recursing17hed45043bfddf607fE+0x17c>
    80201054:	e7743023          	sd	s7,-416(s0)
    80201058:	e8040513          	addi	a0,s0,-384
    8020105c:	85a6                	mv	a1,s1
    8020105e:	0000b097          	auipc	ra,0xb
    80201062:	68a080e7          	jalr	1674(ra) # 8020c6e8 <_ZN5alloc11collections5btree4node10splitpoint17h698ccb298c98f398E>
    80201066:	e8043483          	ld	s1,-384(s0)
    8020106a:	e8843b83          	ld	s7,-376(s0)
    8020106e:	e9043d03          	ld	s10,-368(s0)
    80201072:	0c000513          	li	a0,192
    80201076:	45a1                	li	a1,8
    80201078:	00004097          	auipc	ra,0x4
    8020107c:	7ce080e7          	jalr	1998(ra) # 80205846 <__rust_alloc>
    80201080:	56050a63          	beqz	a0,802015f4 <.LBB14_56+0x14>
    80201084:	8a2a                	mv	s4,a0
    80201086:	00053023          	sd	zero,0(a0)
    8020108a:	00850a93          	addi	s5,a0,8
    8020108e:	e8040593          	addi	a1,s0,-384
    80201092:	0b200613          	li	a2,178
    80201096:	8556                	mv	a0,s5
    80201098:	0000f097          	auipc	ra,0xf
    8020109c:	dae080e7          	jalr	-594(ra) # 8020fe46 <memcpy>
    802010a0:	0a0a1d23          	sh	zero,186(s4)
    802010a4:	0ba95603          	lhu	a2,186(s2)
    802010a8:	fff4c513          	not	a0,s1
    802010ac:	9532                	add	a0,a0,a2
    802010ae:	45b1                	li	a1,12
    802010b0:	0aaa1d23          	sh	a0,186(s4)
    802010b4:	4eb57563          	bgeu	a0,a1,8020159e <.LBB14_53>
    802010b8:	e7343423          	sd	s3,-408(s0)
    802010bc:	00148593          	addi	a1,s1,1
    802010c0:	8e0d                	sub	a2,a2,a1
    802010c2:	4aa61f63          	bne	a2,a0,80201580 <.LBB14_51>
    802010c6:	00890613          	addi	a2,s2,8
    802010ca:	00349693          	slli	a3,s1,0x3
    802010ce:	00d60733          	add	a4,a2,a3
    802010d2:	6318                	ld	a4,0(a4)
    802010d4:	e6e43c23          	sd	a4,-392(s0)
    802010d8:	06090c13          	addi	s8,s2,96
    802010dc:	96e2                	add	a3,a3,s8
    802010de:	6294                	ld	a3,0(a3)
    802010e0:	e6d43823          	sd	a3,-400(s0)
    802010e4:	4685                	li	a3,1
    802010e6:	03d69d93          	slli	s11,a3,0x3d
    802010ea:	00359993          	slli	s3,a1,0x3
    802010ee:	013605b3          	add	a1,a2,s3
    802010f2:	00351b13          	slli	s6,a0,0x3
    802010f6:	8556                	mv	a0,s5
    802010f8:	865a                	mv	a2,s6
    802010fa:	0000f097          	auipc	ra,0xf
    802010fe:	d4c080e7          	jalr	-692(ra) # 8020fe46 <memcpy>
    80201102:	060a0513          	addi	a0,s4,96
    80201106:	013c05b3          	add	a1,s8,s3
    8020110a:	865a                	mv	a2,s6
    8020110c:	0000f097          	auipc	ra,0xf
    80201110:	d3a080e7          	jalr	-710(ra) # 8020fe46 <memcpy>
    80201114:	0a991d23          	sh	s1,186(s2)
    80201118:	84d2                	mv	s1,s4
    8020111a:	000b9363          	bnez	s7,80201120 <_ZN5alloc11collections5btree4node210Handle$LT$alloc..collections..btree..node..NodeRef$LT$alloc..collections..btree..node..marker..Mut$C$K$C$V$C$alloc..collections..btree..node..marker..Leaf$GT$$C$alloc..collections..btree..node..marker..Edge$GT$16insert_recursing17hed45043bfddf607fE+0x120>
    8020111e:	84ca                	mv	s1,s2
    80201120:	0ba4d583          	lhu	a1,186(s1)
    80201124:	fffd8613          	addi	a2,s11,-1
    80201128:	00158b13          	addi	s6,a1,1
    8020112c:	00848c13          	addi	s8,s1,8
    80201130:	001d0513          	addi	a0,s10,1
    80201134:	003d1d93          	slli	s11,s10,0x3
    80201138:	e4c43423          	sd	a2,-440(s0)
    8020113c:	06a5f463          	bgeu	a1,a0,802011a4 <_ZN5alloc11collections5btree4node210Handle$LT$alloc..collections..btree..node..NodeRef$LT$alloc..collections..btree..node..marker..Mut$C$K$C$V$C$alloc..collections..btree..node..marker..Leaf$GT$$C$alloc..collections..btree..node..marker..Edge$GT$16insert_recursing17hed45043bfddf607fE+0x1a4>
    80201140:	06048d13          	addi	s10,s1,96
    80201144:	a859                	j	802011da <_ZN5alloc11collections5btree4node210Handle$LT$alloc..collections..btree..node..NodeRef$LT$alloc..collections..btree..node..marker..Mut$C$K$C$V$C$alloc..collections..btree..node..marker..Leaf$GT$$C$alloc..collections..btree..node..marker..Edge$GT$16insert_recursing17hed45043bfddf607fE+0x1da>
    80201146:	018b05b3          	add	a1,s6,s8
    8020114a:	00351d93          	slli	s11,a0,0x3
    8020114e:	01bb0533          	add	a0,s6,s11
    80201152:	fff4c613          	not	a2,s1
    80201156:	9652                	add	a2,a2,s4
    80201158:	00361a93          	slli	s5,a2,0x3
    8020115c:	8656                	mv	a2,s5
    8020115e:	0000f097          	auipc	ra,0xf
    80201162:	cfe080e7          	jalr	-770(ra) # 8020fe5c <memmove>
    80201166:	06090d13          	addi	s10,s2,96
    8020116a:	018d05b3          	add	a1,s10,s8
    8020116e:	01bd0533          	add	a0,s10,s11
    80201172:	8656                	mv	a2,s5
    80201174:	0000f097          	auipc	ra,0xf
    80201178:	ce8080e7          	jalr	-792(ra) # 8020fe5c <memmove>
    8020117c:	e3843583          	ld	a1,-456(s0)
    80201180:	018b0533          	add	a0,s6,s8
    80201184:	01753023          	sd	s7,0(a0)
    80201188:	018d0533          	add	a0,s10,s8
    8020118c:	01353023          	sd	s3,0(a0)
    80201190:	0b491d23          	sh	s4,186(s2)
    80201194:	0005b023          	sd	zero,0(a1)
    80201198:	0195b423          	sd	s9,8(a1)
    8020119c:	0125b823          	sd	s2,16(a1)
    802011a0:	ed84                	sd	s1,24(a1)
    802011a2:	ae7d                	j	80201560 <_ZN5alloc11collections5btree4node210Handle$LT$alloc..collections..btree..node..NodeRef$LT$alloc..collections..btree..node..marker..Mut$C$K$C$V$C$alloc..collections..btree..node..marker..Leaf$GT$$C$alloc..collections..btree..node..marker..Edge$GT$16insert_recursing17hed45043bfddf607fE+0x560>
    802011a4:	01bc05b3          	add	a1,s8,s11
    802011a8:	00351993          	slli	s3,a0,0x3
    802011ac:	013c0533          	add	a0,s8,s3
    802011b0:	00cd4633          	xor	a2,s10,a2
    802011b4:	965a                	add	a2,a2,s6
    802011b6:	00361a93          	slli	s5,a2,0x3
    802011ba:	8656                	mv	a2,s5
    802011bc:	0000f097          	auipc	ra,0xf
    802011c0:	ca0080e7          	jalr	-864(ra) # 8020fe5c <memmove>
    802011c4:	06048d13          	addi	s10,s1,96
    802011c8:	01bd05b3          	add	a1,s10,s11
    802011cc:	013d0533          	add	a0,s10,s3
    802011d0:	8656                	mv	a2,s5
    802011d2:	0000f097          	auipc	ra,0xf
    802011d6:	c8a080e7          	jalr	-886(ra) # 8020fe5c <memmove>
    802011da:	e6843583          	ld	a1,-408(s0)
    802011de:	e6043603          	ld	a2,-416(s0)
    802011e2:	01bc0533          	add	a0,s8,s11
    802011e6:	e110                	sd	a2,0(a0)
    802011e8:	01bd0533          	add	a0,s10,s11
    802011ec:	e2a43823          	sd	a0,-464(s0)
    802011f0:	e10c                	sd	a1,0(a0)
    802011f2:	0b649d23          	sh	s6,186(s1)
    802011f6:	00093c03          	ld	s8,0(s2)
    802011fa:	240c0363          	beqz	s8,80201440 <_ZN5alloc11collections5btree4node210Handle$LT$alloc..collections..btree..node..NodeRef$LT$alloc..collections..btree..node..marker..Mut$C$K$C$V$C$alloc..collections..btree..node..marker..Leaf$GT$$C$alloc..collections..btree..node..marker..Edge$GT$16insert_recursing17hed45043bfddf607fE+0x440>
    802011fe:	4601                	li	a2,0
    80201200:	8b52                	mv	s6,s4
    80201202:	e7043803          	ld	a6,-400(s0)
    80201206:	e7843683          	ld	a3,-392(s0)
    8020120a:	a839                	j	80201228 <_ZN5alloc11collections5btree4node210Handle$LT$alloc..collections..btree..node..NodeRef$LT$alloc..collections..btree..node..marker..Mut$C$K$C$V$C$alloc..collections..btree..node..marker..Leaf$GT$$C$alloc..collections..btree..node..marker..Edge$GT$16insert_recursing17hed45043bfddf607fE+0x228>
    8020120c:	8962                	mv	s2,s8
    8020120e:	000c3c03          	ld	s8,0(s8)
    80201212:	8532                	mv	a0,a2
    80201214:	8b52                	mv	s6,s4
    80201216:	e7043783          	ld	a5,-400(s0)
    8020121a:	883e                	mv	a6,a5
    8020121c:	e7843703          	ld	a4,-392(s0)
    80201220:	86ba                	mv	a3,a4
    80201222:	8cb2                	mv	s9,a2
    80201224:	220c0463          	beqz	s8,8020144c <_ZN5alloc11collections5btree4node210Handle$LT$alloc..collections..btree..node..NodeRef$LT$alloc..collections..btree..node..marker..Mut$C$K$C$V$C$alloc..collections..btree..node..marker..Leaf$GT$$C$alloc..collections..btree..node..marker..Edge$GT$16insert_recursing17hed45043bfddf607fE+0x44c>
    80201228:	38cc9563          	bne	s9,a2,802015b2 <.LBB14_54>
    8020122c:	0bac5483          	lhu	s1,186(s8)
    80201230:	0b895b83          	lhu	s7,184(s2)
    80201234:	001c8d93          	addi	s11,s9,1
    80201238:	452d                	li	a0,11
    8020123a:	e7643423          	sd	s6,-408(s0)
    8020123e:	e7043023          	sd	a6,-416(s0)
    80201242:	e4d43c23          	sd	a3,-424(s0)
    80201246:	22a4e163          	bltu	s1,a0,80201468 <_ZN5alloc11collections5btree4node210Handle$LT$alloc..collections..btree..node..NodeRef$LT$alloc..collections..btree..node..marker..Mut$C$K$C$V$C$alloc..collections..btree..node..marker..Leaf$GT$$C$alloc..collections..btree..node..marker..Edge$GT$16insert_recursing17hed45043bfddf607fE+0x468>
    8020124a:	e8040493          	addi	s1,s0,-384
    8020124e:	8526                	mv	a0,s1
    80201250:	85de                	mv	a1,s7
    80201252:	0000b097          	auipc	ra,0xb
    80201256:	496080e7          	jalr	1174(ra) # 8020c6e8 <_ZN5alloc11collections5btree4node10splitpoint17h698ccb298c98f398E>
    8020125a:	e8043c83          	ld	s9,-384(s0)
    8020125e:	e8843903          	ld	s2,-376(s0)
    80201262:	e9043983          	ld	s3,-368(s0)
    80201266:	0bac5d03          	lhu	s10,186(s8)
    8020126a:	12000513          	li	a0,288
    8020126e:	45a1                	li	a1,8
    80201270:	00004097          	auipc	ra,0x4
    80201274:	5d6080e7          	jalr	1494(ra) # 80205846 <__rust_alloc>
    80201278:	34050c63          	beqz	a0,802015d0 <.LBB14_55+0x16>
    8020127c:	8a2a                	mv	s4,a0
    8020127e:	00053023          	sd	zero,0(a0)
    80201282:	00850a93          	addi	s5,a0,8
    80201286:	0b200613          	li	a2,178
    8020128a:	8556                	mv	a0,s5
    8020128c:	85a6                	mv	a1,s1
    8020128e:	0000f097          	auipc	ra,0xf
    80201292:	bb8080e7          	jalr	-1096(ra) # 8020fe46 <memcpy>
    80201296:	0a0a1d23          	sh	zero,186(s4)
    8020129a:	0bca0513          	addi	a0,s4,188
    8020129e:	06400613          	li	a2,100
    802012a2:	f3440593          	addi	a1,s0,-204
    802012a6:	0000f097          	auipc	ra,0xf
    802012aa:	ba0080e7          	jalr	-1120(ra) # 8020fe46 <memcpy>
    802012ae:	0bac5603          	lhu	a2,186(s8)
    802012b2:	fffcc513          	not	a0,s9
    802012b6:	9532                	add	a0,a0,a2
    802012b8:	0aaa1d23          	sh	a0,186(s4)
    802012bc:	45b1                	li	a1,12
    802012be:	2eb57063          	bgeu	a0,a1,8020159e <.LBB14_53>
    802012c2:	001c8593          	addi	a1,s9,1
    802012c6:	8e0d                	sub	a2,a2,a1
    802012c8:	2aa61c63          	bne	a2,a0,80201580 <.LBB14_51>
    802012cc:	008c0613          	addi	a2,s8,8
    802012d0:	003c9693          	slli	a3,s9,0x3
    802012d4:	00d60733          	add	a4,a2,a3
    802012d8:	6318                	ld	a4,0(a4)
    802012da:	e6e43c23          	sd	a4,-392(s0)
    802012de:	060c0493          	addi	s1,s8,96
    802012e2:	96a6                	add	a3,a3,s1
    802012e4:	6294                	ld	a3,0(a3)
    802012e6:	e6d43823          	sd	a3,-400(s0)
    802012ea:	00359b93          	slli	s7,a1,0x3
    802012ee:	017605b3          	add	a1,a2,s7
    802012f2:	00351b13          	slli	s6,a0,0x3
    802012f6:	8556                	mv	a0,s5
    802012f8:	865a                	mv	a2,s6
    802012fa:	0000f097          	auipc	ra,0xf
    802012fe:	b4c080e7          	jalr	-1204(ra) # 8020fe46 <memcpy>
    80201302:	060a0513          	addi	a0,s4,96
    80201306:	017485b3          	add	a1,s1,s7
    8020130a:	865a                	mv	a2,s6
    8020130c:	0000f097          	auipc	ra,0xf
    80201310:	b3a080e7          	jalr	-1222(ra) # 8020fe46 <memcpy>
    80201314:	0b9c1d23          	sh	s9,186(s8)
    80201318:	0baa5483          	lhu	s1,186(s4)
    8020131c:	00148513          	addi	a0,s1,1
    80201320:	45b1                	li	a1,12
    80201322:	2ab4ff63          	bgeu	s1,a1,802015e0 <.LBB14_56>
    80201326:	419d0633          	sub	a2,s10,s9
    8020132a:	24a61b63          	bne	a2,a0,80201580 <.LBB14_51>
    8020132e:	017c0533          	add	a0,s8,s7
    80201332:	0c050593          	addi	a1,a0,192
    80201336:	0c0a0513          	addi	a0,s4,192
    8020133a:	060e                	slli	a2,a2,0x3
    8020133c:	0000f097          	auipc	ra,0xf
    80201340:	b0a080e7          	jalr	-1270(ra) # 8020fe46 <memcpy>
    80201344:	4501                	li	a0,0
    80201346:	00351593          	slli	a1,a0,0x3
    8020134a:	95d2                	add	a1,a1,s4
    8020134c:	61ec                	ld	a1,192(a1)
    8020134e:	00953633          	sltu	a2,a0,s1
    80201352:	0aa59c23          	sh	a0,184(a1)
    80201356:	9532                	add	a0,a0,a2
    80201358:	00a4b6b3          	sltu	a3,s1,a0
    8020135c:	0016c693          	xori	a3,a3,1
    80201360:	8e75                	and	a2,a2,a3
    80201362:	0145b023          	sd	s4,0(a1)
    80201366:	f265                	bnez	a2,80201346 <_ZN5alloc11collections5btree4node210Handle$LT$alloc..collections..btree..node..NodeRef$LT$alloc..collections..btree..node..marker..Mut$C$K$C$V$C$alloc..collections..btree..node..marker..Leaf$GT$$C$alloc..collections..btree..node..marker..Edge$GT$16insert_recursing17hed45043bfddf607fE+0x346>
    80201368:	e5b43823          	sd	s11,-432(s0)
    8020136c:	8b52                	mv	s6,s4
    8020136e:	00091363          	bnez	s2,80201374 <_ZN5alloc11collections5btree4node210Handle$LT$alloc..collections..btree..node..NodeRef$LT$alloc..collections..btree..node..marker..Mut$C$K$C$V$C$alloc..collections..btree..node..marker..Leaf$GT$$C$alloc..collections..btree..node..marker..Edge$GT$16insert_recursing17hed45043bfddf607fE+0x374>
    80201372:	8b62                	mv	s6,s8
    80201374:	0bab5d83          	lhu	s11,186(s6)
    80201378:	001d8913          	addi	s2,s11,1
    8020137c:	008b0493          	addi	s1,s6,8
    80201380:	00198d13          	addi	s10,s3,1
    80201384:	00399c93          	slli	s9,s3,0x3
    80201388:	003d1b93          	slli	s7,s10,0x3
    8020138c:	e4843603          	ld	a2,-440(s0)
    80201390:	01adf563          	bgeu	s11,s10,8020139a <_ZN5alloc11collections5btree4node210Handle$LT$alloc..collections..btree..node..NodeRef$LT$alloc..collections..btree..node..marker..Mut$C$K$C$V$C$alloc..collections..btree..node..marker..Leaf$GT$$C$alloc..collections..btree..node..marker..Edge$GT$16insert_recursing17hed45043bfddf607fE+0x39a>
    80201394:	060b0a93          	addi	s5,s6,96
    80201398:	a81d                	j	802013ce <_ZN5alloc11collections5btree4node210Handle$LT$alloc..collections..btree..node..NodeRef$LT$alloc..collections..btree..node..marker..Mut$C$K$C$V$C$alloc..collections..btree..node..marker..Leaf$GT$$C$alloc..collections..btree..node..marker..Edge$GT$16insert_recursing17hed45043bfddf607fE+0x3ce>
    8020139a:	019485b3          	add	a1,s1,s9
    8020139e:	01748533          	add	a0,s1,s7
    802013a2:	00c9c633          	xor	a2,s3,a2
    802013a6:	964a                	add	a2,a2,s2
    802013a8:	060e                	slli	a2,a2,0x3
    802013aa:	e4c43023          	sd	a2,-448(s0)
    802013ae:	0000f097          	auipc	ra,0xf
    802013b2:	aae080e7          	jalr	-1362(ra) # 8020fe5c <memmove>
    802013b6:	060b0a93          	addi	s5,s6,96
    802013ba:	019a85b3          	add	a1,s5,s9
    802013be:	017a8533          	add	a0,s5,s7
    802013c2:	e4043603          	ld	a2,-448(s0)
    802013c6:	0000f097          	auipc	ra,0xf
    802013ca:	a96080e7          	jalr	-1386(ra) # 8020fe5c <memmove>
    802013ce:	e6043583          	ld	a1,-416(s0)
    802013d2:	e5843603          	ld	a2,-424(s0)
    802013d6:	01948533          	add	a0,s1,s9
    802013da:	e110                	sd	a2,0(a0)
    802013dc:	019a8533          	add	a0,s5,s9
    802013e0:	e10c                	sd	a1,0(a0)
    802013e2:	002d8493          	addi	s1,s11,2
    802013e6:	00298513          	addi	a0,s3,2
    802013ea:	0c0b0a93          	addi	s5,s6,192
    802013ee:	02957063          	bgeu	a0,s1,8020140e <_ZN5alloc11collections5btree4node210Handle$LT$alloc..collections..btree..node..NodeRef$LT$alloc..collections..btree..node..marker..Mut$C$K$C$V$C$alloc..collections..btree..node..marker..Leaf$GT$$C$alloc..collections..btree..node..marker..Edge$GT$16insert_recursing17hed45043bfddf607fE+0x40e>
    802013f2:	017a85b3          	add	a1,s5,s7
    802013f6:	050e                	slli	a0,a0,0x3
    802013f8:	9556                	add	a0,a0,s5
    802013fa:	e4843603          	ld	a2,-440(s0)
    802013fe:	00cd4633          	xor	a2,s10,a2
    80201402:	9626                	add	a2,a2,s1
    80201404:	060e                	slli	a2,a2,0x3
    80201406:	0000f097          	auipc	ra,0xf
    8020140a:	a56080e7          	jalr	-1450(ra) # 8020fe5c <memmove>
    8020140e:	017a8533          	add	a0,s5,s7
    80201412:	e6843583          	ld	a1,-408(s0)
    80201416:	e10c                	sd	a1,0(a0)
    80201418:	0b2b1d23          	sh	s2,186(s6)
    8020141c:	e5043603          	ld	a2,-432(s0)
    80201420:	de9d76e3          	bgeu	s10,s1,8020120c <_ZN5alloc11collections5btree4node210Handle$LT$alloc..collections..btree..node..NodeRef$LT$alloc..collections..btree..node..marker..Mut$C$K$C$V$C$alloc..collections..btree..node..marker..Leaf$GT$$C$alloc..collections..btree..node..marker..Edge$GT$16insert_recursing17hed45043bfddf607fE+0x20c>
    80201424:	019b0533          	add	a0,s6,s9
    80201428:	0c850513          	addi	a0,a0,200
    8020142c:	610c                	ld	a1,0(a0)
    8020142e:	0985                	addi	s3,s3,1
    80201430:	0165b023          	sd	s6,0(a1)
    80201434:	0b359c23          	sh	s3,184(a1)
    80201438:	0521                	addi	a0,a0,8
    8020143a:	ff3919e3          	bne	s2,s3,8020142c <_ZN5alloc11collections5btree4node210Handle$LT$alloc..collections..btree..node..NodeRef$LT$alloc..collections..btree..node..marker..Mut$C$K$C$V$C$alloc..collections..btree..node..marker..Leaf$GT$$C$alloc..collections..btree..node..marker..Edge$GT$16insert_recursing17hed45043bfddf607fE+0x42c>
    8020143e:	b3f9                	j	8020120c <_ZN5alloc11collections5btree4node210Handle$LT$alloc..collections..btree..node..NodeRef$LT$alloc..collections..btree..node..marker..Mut$C$K$C$V$C$alloc..collections..btree..node..marker..Leaf$GT$$C$alloc..collections..btree..node..marker..Edge$GT$16insert_recursing17hed45043bfddf607fE+0x20c>
    80201440:	4501                	li	a0,0
    80201442:	8666                	mv	a2,s9
    80201444:	e7843703          	ld	a4,-392(s0)
    80201448:	e7043783          	ld	a5,-400(s0)
    8020144c:	4585                	li	a1,1
    8020144e:	e3843683          	ld	a3,-456(s0)
    80201452:	e28c                	sd	a1,0(a3)
    80201454:	85b6                	mv	a1,a3
    80201456:	e690                	sd	a2,8(a3)
    80201458:	0126b823          	sd	s2,16(a3)
    8020145c:	ee98                	sd	a4,24(a3)
    8020145e:	f29c                	sd	a5,32(a3)
    80201460:	f688                	sd	a0,40(a3)
    80201462:	0346b823          	sd	s4,48(a3)
    80201466:	a8dd                	j	8020155c <_ZN5alloc11collections5btree4node210Handle$LT$alloc..collections..btree..node..NodeRef$LT$alloc..collections..btree..node..marker..Mut$C$K$C$V$C$alloc..collections..btree..node..marker..Leaf$GT$$C$alloc..collections..btree..node..marker..Edge$GT$16insert_recursing17hed45043bfddf607fE+0x55c>
    80201468:	00148613          	addi	a2,s1,1
    8020146c:	008c0513          	addi	a0,s8,8
    80201470:	001b8a13          	addi	s4,s7,1
    80201474:	003b9c93          	slli	s9,s7,0x3
    80201478:	003a1d13          	slli	s10,s4,0x3
    8020147c:	089bf563          	bgeu	s7,s1,80201506 <_ZN5alloc11collections5btree4node210Handle$LT$alloc..collections..btree..node..NodeRef$LT$alloc..collections..btree..node..marker..Mut$C$K$C$V$C$alloc..collections..btree..node..marker..Leaf$GT$$C$alloc..collections..btree..node..marker..Edge$GT$16insert_recursing17hed45043bfddf607fE+0x506>
    80201480:	01950933          	add	s2,a0,s9
    80201484:	956a                	add	a0,a0,s10
    80201486:	e4843983          	ld	s3,-440(s0)
    8020148a:	013bc5b3          	xor	a1,s7,s3
    8020148e:	95b2                	add	a1,a1,a2
    80201490:	00359b13          	slli	s6,a1,0x3
    80201494:	85ca                	mv	a1,s2
    80201496:	e6c43c23          	sd	a2,-392(s0)
    8020149a:	865a                	mv	a2,s6
    8020149c:	0000f097          	auipc	ra,0xf
    802014a0:	9c0080e7          	jalr	-1600(ra) # 8020fe5c <memmove>
    802014a4:	060c0513          	addi	a0,s8,96
    802014a8:	01950ab3          	add	s5,a0,s9
    802014ac:	956a                	add	a0,a0,s10
    802014ae:	85d6                	mv	a1,s5
    802014b0:	865a                	mv	a2,s6
    802014b2:	e6843b03          	ld	s6,-408(s0)
    802014b6:	0000f097          	auipc	ra,0xf
    802014ba:	9a6080e7          	jalr	-1626(ra) # 8020fe5c <memmove>
    802014be:	e5843503          	ld	a0,-424(s0)
    802014c2:	00a93023          	sd	a0,0(s2)
    802014c6:	e6043503          	ld	a0,-416(s0)
    802014ca:	00aab023          	sd	a0,0(s5)
    802014ce:	00248913          	addi	s2,s1,2
    802014d2:	0c0c0493          	addi	s1,s8,192
    802014d6:	01a485b3          	add	a1,s1,s10
    802014da:	009c8533          	add	a0,s9,s1
    802014de:	0541                	addi	a0,a0,16
    802014e0:	013a4633          	xor	a2,s4,s3
    802014e4:	964a                	add	a2,a2,s2
    802014e6:	060e                	slli	a2,a2,0x3
    802014e8:	0000f097          	auipc	ra,0xf
    802014ec:	974080e7          	jalr	-1676(ra) # 8020fe5c <memmove>
    802014f0:	e7843603          	ld	a2,-392(s0)
    802014f4:	01a48533          	add	a0,s1,s10
    802014f8:	01653023          	sd	s6,0(a0)
    802014fc:	0acc1d23          	sh	a2,186(s8)
    80201500:	032a6563          	bltu	s4,s2,8020152a <_ZN5alloc11collections5btree4node210Handle$LT$alloc..collections..btree..node..NodeRef$LT$alloc..collections..btree..node..marker..Mut$C$K$C$V$C$alloc..collections..btree..node..marker..Leaf$GT$$C$alloc..collections..btree..node..marker..Edge$GT$16insert_recursing17hed45043bfddf607fE+0x52a>
    80201504:	a091                	j	80201548 <_ZN5alloc11collections5btree4node210Handle$LT$alloc..collections..btree..node..NodeRef$LT$alloc..collections..btree..node..marker..Mut$C$K$C$V$C$alloc..collections..btree..node..marker..Leaf$GT$$C$alloc..collections..btree..node..marker..Edge$GT$16insert_recursing17hed45043bfddf607fE+0x548>
    80201506:	019c05b3          	add	a1,s8,s9
    8020150a:	9566                	add	a0,a0,s9
    8020150c:	e114                	sd	a3,0(a0)
    8020150e:	0705b023          	sd	a6,96(a1)
    80201512:	00248913          	addi	s2,s1,2
    80201516:	0c0c0493          	addi	s1,s8,192
    8020151a:	01a48533          	add	a0,s1,s10
    8020151e:	01653023          	sd	s6,0(a0)
    80201522:	0acc1d23          	sh	a2,186(s8)
    80201526:	032a7163          	bgeu	s4,s2,80201548 <_ZN5alloc11collections5btree4node210Handle$LT$alloc..collections..btree..node..NodeRef$LT$alloc..collections..btree..node..marker..Mut$C$K$C$V$C$alloc..collections..btree..node..marker..Leaf$GT$$C$alloc..collections..btree..node..marker..Edge$GT$16insert_recursing17hed45043bfddf607fE+0x548>
    8020152a:	019c0533          	add	a0,s8,s9
    8020152e:	0c850513          	addi	a0,a0,200
    80201532:	610c                	ld	a1,0(a0)
    80201534:	001a0613          	addi	a2,s4,1
    80201538:	0185b023          	sd	s8,0(a1)
    8020153c:	0b459c23          	sh	s4,184(a1)
    80201540:	0521                	addi	a0,a0,8
    80201542:	8a32                	mv	s4,a2
    80201544:	fec917e3          	bne	s2,a2,80201532 <_ZN5alloc11collections5btree4node210Handle$LT$alloc..collections..btree..node..NodeRef$LT$alloc..collections..btree..node..marker..Mut$C$K$C$V$C$alloc..collections..btree..node..marker..Leaf$GT$$C$alloc..collections..btree..node..marker..Edge$GT$16insert_recursing17hed45043bfddf607fE+0x532>
    80201548:	e3843583          	ld	a1,-456(s0)
    8020154c:	0005b023          	sd	zero,0(a1)
    80201550:	01b5b423          	sd	s11,8(a1)
    80201554:	0185b823          	sd	s8,16(a1)
    80201558:	0175bc23          	sd	s7,24(a1)
    8020155c:	e3043503          	ld	a0,-464(s0)
    80201560:	fd88                	sd	a0,56(a1)
    80201562:	7db6                	ld	s11,360(sp)
    80201564:	7d56                	ld	s10,368(sp)
    80201566:	7cf6                	ld	s9,376(sp)
    80201568:	6c1a                	ld	s8,384(sp)
    8020156a:	6bba                	ld	s7,392(sp)
    8020156c:	6b5a                	ld	s6,400(sp)
    8020156e:	6afa                	ld	s5,408(sp)
    80201570:	7a1a                	ld	s4,416(sp)
    80201572:	79ba                	ld	s3,424(sp)
    80201574:	795a                	ld	s2,432(sp)
    80201576:	74fa                	ld	s1,440(sp)
    80201578:	641e                	ld	s0,448(sp)
    8020157a:	60be                	ld	ra,456(sp)
    8020157c:	6179                	addi	sp,sp,464
    8020157e:	8082                	ret

0000000080201580 <.LBB14_51>:
    80201580:	0000f517          	auipc	a0,0xf
    80201584:	c5050513          	addi	a0,a0,-944 # 802101d0 <.Lanon.8ba22133f571eabb91757a1ef483d634.12>

0000000080201588 <.LBB14_52>:
    80201588:	0000f617          	auipc	a2,0xf
    8020158c:	c7060613          	addi	a2,a2,-912 # 802101f8 <.Lanon.8ba22133f571eabb91757a1ef483d634.13>
    80201590:	02800593          	li	a1,40
    80201594:	0000b097          	auipc	ra,0xb
    80201598:	4da080e7          	jalr	1242(ra) # 8020ca6e <_ZN4core9panicking5panic17h4214b4eed8d3f37fE>
	...

000000008020159e <.LBB14_53>:
    8020159e:	0000f617          	auipc	a2,0xf
    802015a2:	c7260613          	addi	a2,a2,-910 # 80210210 <.Lanon.8ba22133f571eabb91757a1ef483d634.14>
    802015a6:	45ad                	li	a1,11
    802015a8:	0000d097          	auipc	ra,0xd
    802015ac:	d6e080e7          	jalr	-658(ra) # 8020e316 <_ZN4core5slice5index24slice_end_index_len_fail17h397499141087200aE>
	...

00000000802015b2 <.LBB14_54>:
    802015b2:	0000f517          	auipc	a0,0xf
    802015b6:	c8e50513          	addi	a0,a0,-882 # 80210240 <.Lanon.8ba22133f571eabb91757a1ef483d634.16>

00000000802015ba <.LBB14_55>:
    802015ba:	0000f617          	auipc	a2,0xf
    802015be:	cbe60613          	addi	a2,a2,-834 # 80210278 <.Lanon.8ba22133f571eabb91757a1ef483d634.17>
    802015c2:	03500593          	li	a1,53
    802015c6:	0000b097          	auipc	ra,0xb
    802015ca:	4a8080e7          	jalr	1192(ra) # 8020ca6e <_ZN4core9panicking5panic17h4214b4eed8d3f37fE>
    802015ce:	0000                	unimp
    802015d0:	12000513          	li	a0,288
    802015d4:	45a1                	li	a1,8
    802015d6:	0000b097          	auipc	ra,0xb
    802015da:	0f6080e7          	jalr	246(ra) # 8020c6cc <_ZN5alloc5alloc18handle_alloc_error17hd88389f3109c4dfdE>
	...

00000000802015e0 <.LBB14_56>:
    802015e0:	0000f617          	auipc	a2,0xf
    802015e4:	c4860613          	addi	a2,a2,-952 # 80210228 <.Lanon.8ba22133f571eabb91757a1ef483d634.15>
    802015e8:	45b1                	li	a1,12
    802015ea:	0000d097          	auipc	ra,0xd
    802015ee:	d2c080e7          	jalr	-724(ra) # 8020e316 <_ZN4core5slice5index24slice_end_index_len_fail17h397499141087200aE>
    802015f2:	0000                	unimp
    802015f4:	0c000513          	li	a0,192
    802015f8:	45a1                	li	a1,8
    802015fa:	0000b097          	auipc	ra,0xb
    802015fe:	0d2080e7          	jalr	210(ra) # 8020c6cc <_ZN5alloc5alloc18handle_alloc_error17hd88389f3109c4dfdE>
	...

0000000080201604 <_ZN2os2mm10memory_set9MemorySet10new_kernel17h346be50c08b3a770E>:
    80201604:	716d                	addi	sp,sp,-272
    80201606:	e606                	sd	ra,264(sp)
    80201608:	e222                	sd	s0,256(sp)
    8020160a:	fda6                	sd	s1,248(sp)
    8020160c:	f9ca                	sd	s2,240(sp)
    8020160e:	f5ce                	sd	s3,232(sp)
    80201610:	f1d2                	sd	s4,224(sp)
    80201612:	edd6                	sd	s5,216(sp)
    80201614:	e9da                	sd	s6,208(sp)
    80201616:	e5de                	sd	s7,200(sp)
    80201618:	e1e2                	sd	s8,192(sp)
    8020161a:	fd66                	sd	s9,184(sp)
    8020161c:	f96a                	sd	s10,176(sp)
    8020161e:	f56e                	sd	s11,168(sp)
    80201620:	0a00                	addi	s0,sp,272
    80201622:	8aaa                	mv	s5,a0
    80201624:	00003097          	auipc	ra,0x3
    80201628:	470080e7          	jalr	1136(ra) # 80204a94 <_ZN2os2mm15frame_allocator11frame_alloc17ha7fa5a63181a930bE>
    8020162c:	32050fe3          	beqz	a0,8020216a <.LBB6_116>
    80201630:	84ae                	mv	s1,a1
    80201632:	4521                	li	a0,8
    80201634:	45a1                	li	a1,8
    80201636:	4921                	li	s2,8
    80201638:	00004097          	auipc	ra,0x4
    8020163c:	20e080e7          	jalr	526(ra) # 80205846 <__rust_alloc>
    80201640:	340504e3          	beqz	a0,80202188 <.LBB6_117+0x16>
    80201644:	e104                	sd	s1,0(a0)
    80201646:	009ab023          	sd	s1,0(s5)
    8020164a:	00aab423          	sd	a0,8(s5)
    8020164e:	4505                	li	a0,1
    80201650:	00aab823          	sd	a0,16(s5)
    80201654:	00aabc23          	sd	a0,24(s5)
    80201658:	032ab023          	sd	s2,32(s5)
    8020165c:	020ab423          	sd	zero,40(s5)
    80201660:	020ab823          	sd	zero,48(s5)

0000000080201664 <.LBB6_77>:
    80201664:	00000597          	auipc	a1,0x0
    80201668:	99c58593          	addi	a1,a1,-1636 # 80201000 <_ZN5alloc11collections5btree4node210Handle$LT$alloc..collections..btree..node..NodeRef$LT$alloc..collections..btree..node..marker..Mut$C$K$C$V$C$alloc..collections..btree..node..marker..Leaf$GT$$C$alloc..collections..btree..node..marker..Edge$GT$16insert_recursing17hed45043bfddf607fE>
    8020166c:	6605                	lui	a2,0x1
    8020166e:	367d                	addiw	a2,a2,-1
    80201670:	8e6d                	and	a2,a2,a1
    80201672:	f4c43823          	sd	a2,-176(s0)
    80201676:	320610e3          	bnez	a2,80202196 <.LBB6_117+0x24>
    8020167a:	00c5d613          	srli	a2,a1,0xc
    8020167e:	1552                	slli	a0,a0,0x34
    80201680:	fff50593          	addi	a1,a0,-1
    80201684:	46a9                	li	a3,10
    80201686:	8556                	mv	a0,s5
    80201688:	00001097          	auipc	ra,0x1
    8020168c:	1ea080e7          	jalr	490(ra) # 80202872 <_ZN2os2mm10page_table9PageTable3map17h2562fa28cb2e5ceeE>

0000000080201690 <.LBB6_78>:
    80201690:	fffffb17          	auipc	s6,0xfffff
    80201694:	970b0b13          	addi	s6,s6,-1680 # 80200000 <_start>
    80201698:	f5643823          	sd	s6,-176(s0)

000000008020169c <.LBB6_79>:
    8020169c:	0000fd17          	auipc	s10,0xf
    802016a0:	964d0d13          	addi	s10,s10,-1692 # 80210000 <etext>
    802016a4:	f5a43c23          	sd	s10,-168(s0)
    802016a8:	f5040a13          	addi	s4,s0,-176
    802016ac:	f3443023          	sd	s4,-224(s0)

00000000802016b0 <.LBB6_80>:
    802016b0:	0000e497          	auipc	s1,0xe
    802016b4:	86448493          	addi	s1,s1,-1948 # 8020ef14 <_ZN4core3fmt3num53_$LT$impl$u20$core..fmt..LowerHex$u20$for$u20$i64$GT$3fmt17he21e11f173f31e15E>
    802016b8:	f2943423          	sd	s1,-216(s0)
    802016bc:	f5840c93          	addi	s9,s0,-168
    802016c0:	f3943823          	sd	s9,-208(s0)
    802016c4:	f2943c23          	sd	s1,-200(s0)
    802016c8:	f6840513          	addi	a0,s0,-152
    802016cc:	f6a43023          	sd	a0,-160(s0)

00000000802016d0 <.LBB6_81>:
    802016d0:	0000f517          	auipc	a0,0xf
    802016d4:	bf850513          	addi	a0,a0,-1032 # 802102c8 <.Lanon.d703ab377f544c1c67a4f395927238a9.6>
    802016d8:	f6a43423          	sd	a0,-152(s0)
    802016dc:	498d                	li	s3,3
    802016de:	f7343823          	sd	s3,-144(s0)

00000000802016e2 <.LBB6_82>:
    802016e2:	0000fc17          	auipc	s8,0xf
    802016e6:	c16c0c13          	addi	s8,s8,-1002 # 802102f8 <.Lanon.d703ab377f544c1c67a4f395927238a9.7>
    802016ea:	f7843c23          	sd	s8,-136(s0)
    802016ee:	4b89                	li	s7,2
    802016f0:	f9743023          	sd	s7,-128(s0)
    802016f4:	f2040d93          	addi	s11,s0,-224
    802016f8:	f9b43423          	sd	s11,-120(s0)
    802016fc:	f9743823          	sd	s7,-112(s0)

0000000080201700 <.LBB6_83>:
    80201700:	0000f597          	auipc	a1,0xf
    80201704:	55058593          	addi	a1,a1,1360 # 80210c50 <anon.3864ce854fd1093fe353f51790d6b615.0.llvm.4080457696073421243>
    80201708:	f6040513          	addi	a0,s0,-160
    8020170c:	f6840913          	addi	s2,s0,-152
    80201710:	864a                	mv	a2,s2
    80201712:	0000c097          	auipc	ra,0xc
    80201716:	bd8080e7          	jalr	-1064(ra) # 8020d2ea <_ZN4core3fmt5write17h338141860f5a80fbE>
    8020171a:	200514e3          	bnez	a0,80202122 <.LBB6_112>

000000008020171e <.LBB6_84>:
    8020171e:	0000f517          	auipc	a0,0xf
    80201722:	8e250513          	addi	a0,a0,-1822 # 80210000 <etext>
    80201726:	eea43823          	sd	a0,-272(s0)
    8020172a:	f4a43823          	sd	a0,-176(s0)

000000008020172e <.LBB6_85>:
    8020172e:	00015517          	auipc	a0,0x15
    80201732:	8d250513          	addi	a0,a0,-1838 # 80216000 <erodata>
    80201736:	eea43c23          	sd	a0,-264(s0)
    8020173a:	f4a43c23          	sd	a0,-168(s0)
    8020173e:	f3443023          	sd	s4,-224(s0)
    80201742:	f2943423          	sd	s1,-216(s0)
    80201746:	f3943823          	sd	s9,-208(s0)
    8020174a:	f2943c23          	sd	s1,-200(s0)
    8020174e:	f7243023          	sd	s2,-160(s0)

0000000080201752 <.LBB6_86>:
    80201752:	0000f517          	auipc	a0,0xf
    80201756:	c2650513          	addi	a0,a0,-986 # 80210378 <.Lanon.d703ab377f544c1c67a4f395927238a9.9>
    8020175a:	f6a43423          	sd	a0,-152(s0)
    8020175e:	f7343823          	sd	s3,-144(s0)
    80201762:	f7843c23          	sd	s8,-136(s0)
    80201766:	f9743023          	sd	s7,-128(s0)
    8020176a:	f9b43423          	sd	s11,-120(s0)
    8020176e:	f9743823          	sd	s7,-112(s0)

0000000080201772 <.LBB6_87>:
    80201772:	0000f597          	auipc	a1,0xf
    80201776:	4de58593          	addi	a1,a1,1246 # 80210c50 <anon.3864ce854fd1093fe353f51790d6b615.0.llvm.4080457696073421243>
    8020177a:	f6040513          	addi	a0,s0,-160
    8020177e:	f6840913          	addi	s2,s0,-152
    80201782:	864a                	mv	a2,s2
    80201784:	0000c097          	auipc	ra,0xc
    80201788:	b66080e7          	jalr	-1178(ra) # 8020d2ea <_ZN4core3fmt5write17h338141860f5a80fbE>
    8020178c:	18051be3          	bnez	a0,80202122 <.LBB6_112>

0000000080201790 <.LBB6_88>:
    80201790:	00015517          	auipc	a0,0x15
    80201794:	87050513          	addi	a0,a0,-1936 # 80216000 <erodata>
    80201798:	f0a43023          	sd	a0,-256(s0)
    8020179c:	f4a43823          	sd	a0,-176(s0)

00000000802017a0 <.LBB6_89>:
    802017a0:	00016517          	auipc	a0,0x16
    802017a4:	86050513          	addi	a0,a0,-1952 # 80217000 <edata>
    802017a8:	f0a43423          	sd	a0,-248(s0)
    802017ac:	f4a43c23          	sd	a0,-168(s0)
    802017b0:	f3443023          	sd	s4,-224(s0)
    802017b4:	f2943423          	sd	s1,-216(s0)
    802017b8:	f3943823          	sd	s9,-208(s0)
    802017bc:	f2943c23          	sd	s1,-200(s0)
    802017c0:	f7243023          	sd	s2,-160(s0)

00000000802017c4 <.LBB6_90>:
    802017c4:	0000f517          	auipc	a0,0xf
    802017c8:	bec50513          	addi	a0,a0,-1044 # 802103b0 <.Lanon.d703ab377f544c1c67a4f395927238a9.11>
    802017cc:	f6a43423          	sd	a0,-152(s0)
    802017d0:	498d                	li	s3,3
    802017d2:	f7343823          	sd	s3,-144(s0)
    802017d6:	f7843c23          	sd	s8,-136(s0)
    802017da:	4b89                	li	s7,2
    802017dc:	f9743023          	sd	s7,-128(s0)
    802017e0:	f9b43423          	sd	s11,-120(s0)
    802017e4:	f9743823          	sd	s7,-112(s0)

00000000802017e8 <.LBB6_91>:
    802017e8:	0000f597          	auipc	a1,0xf
    802017ec:	46858593          	addi	a1,a1,1128 # 80210c50 <anon.3864ce854fd1093fe353f51790d6b615.0.llvm.4080457696073421243>
    802017f0:	f6040513          	addi	a0,s0,-160
    802017f4:	f6840913          	addi	s2,s0,-152
    802017f8:	864a                	mv	a2,s2
    802017fa:	0000c097          	auipc	ra,0xc
    802017fe:	af0080e7          	jalr	-1296(ra) # 8020d2ea <_ZN4core3fmt5write17h338141860f5a80fbE>
    80201802:	120510e3          	bnez	a0,80202122 <.LBB6_112>

0000000080201806 <.LBB6_92>:
    80201806:	00015517          	auipc	a0,0x15
    8020180a:	7fa50513          	addi	a0,a0,2042 # 80217000 <edata>
    8020180e:	f0a43823          	sd	a0,-240(s0)
    80201812:	f4a43823          	sd	a0,-176(s0)

0000000080201816 <.LBB6_93>:
    80201816:	00226517          	auipc	a0,0x226
    8020181a:	7ea50513          	addi	a0,a0,2026 # 80428000 <ebss>
    8020181e:	f0a43c23          	sd	a0,-232(s0)
    80201822:	f4a43c23          	sd	a0,-168(s0)
    80201826:	f3443023          	sd	s4,-224(s0)
    8020182a:	f2943423          	sd	s1,-216(s0)
    8020182e:	f3943823          	sd	s9,-208(s0)
    80201832:	f2943c23          	sd	s1,-200(s0)
    80201836:	f7243023          	sd	s2,-160(s0)

000000008020183a <.LBB6_94>:
    8020183a:	0000f517          	auipc	a0,0xf
    8020183e:	bae50513          	addi	a0,a0,-1106 # 802103e8 <.Lanon.d703ab377f544c1c67a4f395927238a9.13>
    80201842:	f6a43423          	sd	a0,-152(s0)
    80201846:	f7343823          	sd	s3,-144(s0)
    8020184a:	f7843c23          	sd	s8,-136(s0)
    8020184e:	f9743023          	sd	s7,-128(s0)
    80201852:	f9b43423          	sd	s11,-120(s0)
    80201856:	f9743823          	sd	s7,-112(s0)

000000008020185a <.LBB6_95>:
    8020185a:	0000f597          	auipc	a1,0xf
    8020185e:	3f658593          	addi	a1,a1,1014 # 80210c50 <anon.3864ce854fd1093fe353f51790d6b615.0.llvm.4080457696073421243>
    80201862:	f6040993          	addi	s3,s0,-160
    80201866:	f6840493          	addi	s1,s0,-152
    8020186a:	854e                	mv	a0,s3
    8020186c:	8626                	mv	a2,s1
    8020186e:	0000c097          	auipc	ra,0xc
    80201872:	a7c080e7          	jalr	-1412(ra) # 8020d2ea <_ZN4core3fmt5write17h338141860f5a80fbE>
    80201876:	0a0516e3          	bnez	a0,80202122 <.LBB6_112>
    8020187a:	f2943023          	sd	s1,-224(s0)

000000008020187e <.LBB6_96>:
    8020187e:	0000f517          	auipc	a0,0xf
    80201882:	bb250513          	addi	a0,a0,-1102 # 80210430 <.Lanon.d703ab377f544c1c67a4f395927238a9.15>
    80201886:	f6a43423          	sd	a0,-152(s0)
    8020188a:	4505                	li	a0,1
    8020188c:	f6a43823          	sd	a0,-144(s0)
    80201890:	f6043c23          	sd	zero,-136(s0)

0000000080201894 <.LBB6_97>:
    80201894:	0000fc17          	auipc	s8,0xf
    80201898:	db4c0c13          	addi	s8,s8,-588 # 80210648 <anon.f2b1b5a509bdedcdd67207527f4f0965.0.llvm.1283535708719223612>
    8020189c:	f9843423          	sd	s8,-120(s0)
    802018a0:	f8043823          	sd	zero,-112(s0)

00000000802018a4 <.LBB6_98>:
    802018a4:	0000f597          	auipc	a1,0xf
    802018a8:	3ac58593          	addi	a1,a1,940 # 80210c50 <anon.3864ce854fd1093fe353f51790d6b615.0.llvm.4080457696073421243>
    802018ac:	f2040913          	addi	s2,s0,-224
    802018b0:	f6840a13          	addi	s4,s0,-152
    802018b4:	854a                	mv	a0,s2
    802018b6:	8652                	mv	a2,s4
    802018b8:	0000c097          	auipc	ra,0xc
    802018bc:	a32080e7          	jalr	-1486(ra) # 8020d2ea <_ZN4core3fmt5write17h338141860f5a80fbE>
    802018c0:	060511e3          	bnez	a0,80202122 <.LBB6_112>
    802018c4:	00cb5b13          	srli	s6,s6,0xc
    802018c8:	f5643c23          	sd	s6,-168(s0)
    802018cc:	6505                	lui	a0,0x1
    802018ce:	fff5059b          	addiw	a1,a0,-1
    802018d2:	95ea                	add	a1,a1,s10
    802018d4:	81b1                	srli	a1,a1,0xc
    802018d6:	f6b43023          	sd	a1,-160(s0)
    802018da:	1165efe3          	bltu	a1,s6,802021f8 <.LBB6_121+0xa>
    802018de:	f3643023          	sd	s6,-224(s0)
    802018e2:	f6843603          	ld	a2,-152(s0)
    802018e6:	f2b43423          	sd	a1,-216(s0)
    802018ea:	f2043c23          	sd	zero,-200(s0)
    802018ee:	f4043023          	sd	zero,-192(s0)
    802018f2:	f2c43823          	sd	a2,-208(s0)
    802018f6:	a005051b          	addiw	a0,a0,-1536
    802018fa:	f4a41423          	sh	a0,-184(s0)
    802018fe:	5ebb1863          	bne	s6,a1,80201eee <.LBB6_109+0xfa>
    80201902:	f4843503          	ld	a0,-184(s0)
    80201906:	f4043583          	ld	a1,-192(s0)
    8020190a:	f3843603          	ld	a2,-200(s0)
    8020190e:	f3043683          	ld	a3,-208(s0)
    80201912:	f8a43823          	sd	a0,-112(s0)
    80201916:	f8b43423          	sd	a1,-120(s0)
    8020191a:	f8c43023          	sd	a2,-128(s0)
    8020191e:	f6d43c23          	sd	a3,-136(s0)
    80201922:	f2843503          	ld	a0,-216(s0)
    80201926:	f2043603          	ld	a2,-224(s0)
    8020192a:	030ab583          	ld	a1,48(s5)
    8020192e:	028ab683          	ld	a3,40(s5)
    80201932:	f6a43823          	sd	a0,-144(s0)
    80201936:	020a8913          	addi	s2,s5,32
    8020193a:	f6c43423          	sd	a2,-152(s0)
    8020193e:	030a8d13          	addi	s10,s5,48
    80201942:	00d59a63          	bne	a1,a3,80201956 <.LBB6_98+0xb2>
    80201946:	4605                	li	a2,1
    80201948:	854a                	mv	a0,s2
    8020194a:	00002097          	auipc	ra,0x2
    8020194e:	5ee080e7          	jalr	1518(ra) # 80203f38 <_ZN5alloc7raw_vec19RawVec$LT$T$C$A$GT$7reserve17hcef46bfd9e2455d8E>
    80201952:	000d3583          	ld	a1,0(s10)
    80201956:	00093503          	ld	a0,0(s2)
    8020195a:	f9043603          	ld	a2,-112(s0)
    8020195e:	03000693          	li	a3,48
    80201962:	02d585b3          	mul	a1,a1,a3
    80201966:	952e                	add	a0,a0,a1
    80201968:	f510                	sd	a2,40(a0)
    8020196a:	f8843583          	ld	a1,-120(s0)
    8020196e:	f10c                	sd	a1,32(a0)
    80201970:	f8043583          	ld	a1,-128(s0)
    80201974:	ed0c                	sd	a1,24(a0)
    80201976:	f7843583          	ld	a1,-136(s0)
    8020197a:	e90c                	sd	a1,16(a0)
    8020197c:	f7043583          	ld	a1,-144(s0)
    80201980:	e50c                	sd	a1,8(a0)
    80201982:	f6843583          	ld	a1,-152(s0)
    80201986:	e10c                	sd	a1,0(a0)
    80201988:	000d3503          	ld	a0,0(s10)
    8020198c:	0505                	addi	a0,a0,1
    8020198e:	00ad3023          	sd	a0,0(s10)
    80201992:	f3443023          	sd	s4,-224(s0)

0000000080201996 <.LBB6_99>:
    80201996:	0000f517          	auipc	a0,0xf
    8020199a:	ac250513          	addi	a0,a0,-1342 # 80210458 <.Lanon.d703ab377f544c1c67a4f395927238a9.18>
    8020199e:	f6a43423          	sd	a0,-152(s0)
    802019a2:	4505                	li	a0,1
    802019a4:	f6a43823          	sd	a0,-144(s0)
    802019a8:	f6043c23          	sd	zero,-136(s0)
    802019ac:	f9843423          	sd	s8,-120(s0)
    802019b0:	f8043823          	sd	zero,-112(s0)

00000000802019b4 <.LBB6_100>:
    802019b4:	0000f597          	auipc	a1,0xf
    802019b8:	29c58593          	addi	a1,a1,668 # 80210c50 <anon.3864ce854fd1093fe353f51790d6b615.0.llvm.4080457696073421243>
    802019bc:	f2040b13          	addi	s6,s0,-224
    802019c0:	f6840a13          	addi	s4,s0,-152
    802019c4:	855a                	mv	a0,s6
    802019c6:	8652                	mv	a2,s4
    802019c8:	0000c097          	auipc	ra,0xc
    802019cc:	922080e7          	jalr	-1758(ra) # 8020d2ea <_ZN4core3fmt5write17h338141860f5a80fbE>
    802019d0:	74051963          	bnez	a0,80202122 <.LBB6_112>
    802019d4:	ef043503          	ld	a0,-272(s0)
    802019d8:	00c55b93          	srli	s7,a0,0xc
    802019dc:	f5743c23          	sd	s7,-168(s0)
    802019e0:	6505                	lui	a0,0x1
    802019e2:	357d                	addiw	a0,a0,-1
    802019e4:	ef843603          	ld	a2,-264(s0)
    802019e8:	9532                	add	a0,a0,a2
    802019ea:	8131                	srli	a0,a0,0xc
    802019ec:	f6a43023          	sd	a0,-160(s0)
    802019f0:	057560e3          	bltu	a0,s7,80202230 <.LBB6_123+0x1c>
    802019f4:	f3743023          	sd	s7,-224(s0)
    802019f8:	f6843583          	ld	a1,-152(s0)
    802019fc:	f2a43423          	sd	a0,-216(s0)
    80201a00:	f2043c23          	sd	zero,-200(s0)
    80201a04:	f4043023          	sd	zero,-192(s0)
    80201a08:	f2b43823          	sd	a1,-208(s0)
    80201a0c:	20000593          	li	a1,512
    80201a10:	f4b41423          	sh	a1,-184(s0)
    80201a14:	54ab9363          	bne	s7,a0,80201f5a <.LBB6_109+0x166>
    80201a18:	f4843503          	ld	a0,-184(s0)
    80201a1c:	f4043583          	ld	a1,-192(s0)
    80201a20:	028a8c93          	addi	s9,s5,40
    80201a24:	f8a43823          	sd	a0,-112(s0)
    80201a28:	f8b43423          	sd	a1,-120(s0)
    80201a2c:	f3843503          	ld	a0,-200(s0)
    80201a30:	f3043603          	ld	a2,-208(s0)
    80201a34:	f2843683          	ld	a3,-216(s0)
    80201a38:	f2043703          	ld	a4,-224(s0)
    80201a3c:	000d3583          	ld	a1,0(s10)
    80201a40:	000cb783          	ld	a5,0(s9)
    80201a44:	f8a43023          	sd	a0,-128(s0)
    80201a48:	f6c43c23          	sd	a2,-136(s0)
    80201a4c:	f6d43823          	sd	a3,-144(s0)
    80201a50:	f6e43423          	sd	a4,-152(s0)
    80201a54:	00f59a63          	bne	a1,a5,80201a68 <.LBB6_100+0xb4>
    80201a58:	4605                	li	a2,1
    80201a5a:	854a                	mv	a0,s2
    80201a5c:	00002097          	auipc	ra,0x2
    80201a60:	4dc080e7          	jalr	1244(ra) # 80203f38 <_ZN5alloc7raw_vec19RawVec$LT$T$C$A$GT$7reserve17hcef46bfd9e2455d8E>
    80201a64:	000d3583          	ld	a1,0(s10)
    80201a68:	00093503          	ld	a0,0(s2)
    80201a6c:	f9043603          	ld	a2,-112(s0)
    80201a70:	03000693          	li	a3,48
    80201a74:	02d585b3          	mul	a1,a1,a3
    80201a78:	952e                	add	a0,a0,a1
    80201a7a:	f510                	sd	a2,40(a0)
    80201a7c:	f8843583          	ld	a1,-120(s0)
    80201a80:	f10c                	sd	a1,32(a0)
    80201a82:	f8043583          	ld	a1,-128(s0)
    80201a86:	ed0c                	sd	a1,24(a0)
    80201a88:	f7843583          	ld	a1,-136(s0)
    80201a8c:	e90c                	sd	a1,16(a0)
    80201a8e:	f7043583          	ld	a1,-144(s0)
    80201a92:	e50c                	sd	a1,8(a0)
    80201a94:	f6843583          	ld	a1,-152(s0)
    80201a98:	e10c                	sd	a1,0(a0)
    80201a9a:	000d3503          	ld	a0,0(s10)
    80201a9e:	0505                	addi	a0,a0,1
    80201aa0:	00ad3023          	sd	a0,0(s10)
    80201aa4:	f3443023          	sd	s4,-224(s0)

0000000080201aa8 <.LBB6_101>:
    80201aa8:	0000f517          	auipc	a0,0xf
    80201aac:	9d850513          	addi	a0,a0,-1576 # 80210480 <.Lanon.d703ab377f544c1c67a4f395927238a9.20>
    80201ab0:	f6a43423          	sd	a0,-152(s0)
    80201ab4:	4505                	li	a0,1
    80201ab6:	f6a43823          	sd	a0,-144(s0)
    80201aba:	f6043c23          	sd	zero,-136(s0)
    80201abe:	f9843423          	sd	s8,-120(s0)
    80201ac2:	f8043823          	sd	zero,-112(s0)

0000000080201ac6 <.LBB6_102>:
    80201ac6:	0000f597          	auipc	a1,0xf
    80201aca:	18a58593          	addi	a1,a1,394 # 80210c50 <anon.3864ce854fd1093fe353f51790d6b615.0.llvm.4080457696073421243>
    80201ace:	f2040b13          	addi	s6,s0,-224
    80201ad2:	f6840a13          	addi	s4,s0,-152
    80201ad6:	855a                	mv	a0,s6
    80201ad8:	8652                	mv	a2,s4
    80201ada:	0000c097          	auipc	ra,0xc
    80201ade:	810080e7          	jalr	-2032(ra) # 8020d2ea <_ZN4core3fmt5write17h338141860f5a80fbE>
    80201ae2:	64051063          	bnez	a0,80202122 <.LBB6_112>
    80201ae6:	f0043503          	ld	a0,-256(s0)
    80201aea:	00c55b93          	srli	s7,a0,0xc
    80201aee:	f5743c23          	sd	s7,-168(s0)
    80201af2:	6505                	lui	a0,0x1
    80201af4:	357d                	addiw	a0,a0,-1
    80201af6:	f0843603          	ld	a2,-248(s0)
    80201afa:	9532                	add	a0,a0,a2
    80201afc:	8131                	srli	a0,a0,0xc
    80201afe:	f6a43023          	sd	a0,-160(s0)
    80201b02:	65756563          	bltu	a0,s7,8020214c <.LBB6_114+0x1a>
    80201b06:	f3743023          	sd	s7,-224(s0)
    80201b0a:	f6843583          	ld	a1,-152(s0)
    80201b0e:	f2a43423          	sd	a0,-216(s0)
    80201b12:	f2043c23          	sd	zero,-200(s0)
    80201b16:	f4043023          	sd	zero,-192(s0)
    80201b1a:	f2b43823          	sd	a1,-208(s0)
    80201b1e:	60000593          	li	a1,1536
    80201b22:	f4b41423          	sh	a1,-184(s0)
    80201b26:	4aab9063          	bne	s7,a0,80201fc6 <.LBB6_109+0x1d2>
    80201b2a:	f4843503          	ld	a0,-184(s0)
    80201b2e:	f4043583          	ld	a1,-192(s0)
    80201b32:	f8a43823          	sd	a0,-112(s0)
    80201b36:	f8b43423          	sd	a1,-120(s0)
    80201b3a:	f3843503          	ld	a0,-200(s0)
    80201b3e:	f3043603          	ld	a2,-208(s0)
    80201b42:	f2843683          	ld	a3,-216(s0)
    80201b46:	f2043703          	ld	a4,-224(s0)
    80201b4a:	000d3583          	ld	a1,0(s10)
    80201b4e:	000cb783          	ld	a5,0(s9)
    80201b52:	f8a43023          	sd	a0,-128(s0)
    80201b56:	f6c43c23          	sd	a2,-136(s0)
    80201b5a:	f6d43823          	sd	a3,-144(s0)
    80201b5e:	f6e43423          	sd	a4,-152(s0)
    80201b62:	00f59a63          	bne	a1,a5,80201b76 <.LBB6_102+0xb0>
    80201b66:	4605                	li	a2,1
    80201b68:	854a                	mv	a0,s2
    80201b6a:	00002097          	auipc	ra,0x2
    80201b6e:	3ce080e7          	jalr	974(ra) # 80203f38 <_ZN5alloc7raw_vec19RawVec$LT$T$C$A$GT$7reserve17hcef46bfd9e2455d8E>
    80201b72:	000d3583          	ld	a1,0(s10)
    80201b76:	00093503          	ld	a0,0(s2)
    80201b7a:	f9043603          	ld	a2,-112(s0)
    80201b7e:	03000693          	li	a3,48
    80201b82:	02d585b3          	mul	a1,a1,a3
    80201b86:	952e                	add	a0,a0,a1
    80201b88:	f510                	sd	a2,40(a0)
    80201b8a:	f8843583          	ld	a1,-120(s0)
    80201b8e:	f10c                	sd	a1,32(a0)
    80201b90:	f8043583          	ld	a1,-128(s0)
    80201b94:	ed0c                	sd	a1,24(a0)
    80201b96:	f7843583          	ld	a1,-136(s0)
    80201b9a:	e90c                	sd	a1,16(a0)
    80201b9c:	f7043583          	ld	a1,-144(s0)
    80201ba0:	e50c                	sd	a1,8(a0)
    80201ba2:	f6843583          	ld	a1,-152(s0)
    80201ba6:	e10c                	sd	a1,0(a0)
    80201ba8:	000d3503          	ld	a0,0(s10)
    80201bac:	0505                	addi	a0,a0,1
    80201bae:	00ad3023          	sd	a0,0(s10)
    80201bb2:	f3443023          	sd	s4,-224(s0)

0000000080201bb6 <.LBB6_103>:
    80201bb6:	0000f517          	auipc	a0,0xf
    80201bba:	8f250513          	addi	a0,a0,-1806 # 802104a8 <.Lanon.d703ab377f544c1c67a4f395927238a9.22>
    80201bbe:	f6a43423          	sd	a0,-152(s0)
    80201bc2:	4505                	li	a0,1
    80201bc4:	f6a43823          	sd	a0,-144(s0)
    80201bc8:	f6043c23          	sd	zero,-136(s0)
    80201bcc:	f9843423          	sd	s8,-120(s0)
    80201bd0:	f8043823          	sd	zero,-112(s0)

0000000080201bd4 <.LBB6_104>:
    80201bd4:	0000f597          	auipc	a1,0xf
    80201bd8:	07c58593          	addi	a1,a1,124 # 80210c50 <anon.3864ce854fd1093fe353f51790d6b615.0.llvm.4080457696073421243>
    80201bdc:	f2040b13          	addi	s6,s0,-224
    80201be0:	f6840a13          	addi	s4,s0,-152
    80201be4:	855a                	mv	a0,s6
    80201be6:	8652                	mv	a2,s4
    80201be8:	0000b097          	auipc	ra,0xb
    80201bec:	702080e7          	jalr	1794(ra) # 8020d2ea <_ZN4core3fmt5write17h338141860f5a80fbE>
    80201bf0:	52051963          	bnez	a0,80202122 <.LBB6_112>
    80201bf4:	f1043503          	ld	a0,-240(s0)
    80201bf8:	00c55b93          	srli	s7,a0,0xc
    80201bfc:	f5743c23          	sd	s7,-168(s0)
    80201c00:	6505                	lui	a0,0x1
    80201c02:	357d                	addiw	a0,a0,-1
    80201c04:	f1843603          	ld	a2,-232(s0)
    80201c08:	9532                	add	a0,a0,a2
    80201c0a:	8131                	srli	a0,a0,0xc
    80201c0c:	f6a43023          	sd	a0,-160(s0)
    80201c10:	53756e63          	bltu	a0,s7,8020214c <.LBB6_114+0x1a>
    80201c14:	f3743023          	sd	s7,-224(s0)
    80201c18:	f6843583          	ld	a1,-152(s0)
    80201c1c:	f2a43423          	sd	a0,-216(s0)
    80201c20:	f2043c23          	sd	zero,-200(s0)
    80201c24:	f4043023          	sd	zero,-192(s0)
    80201c28:	f2b43823          	sd	a1,-208(s0)
    80201c2c:	60000593          	li	a1,1536
    80201c30:	f4b41423          	sh	a1,-184(s0)
    80201c34:	3eab9f63          	bne	s7,a0,80202032 <.LBB6_109+0x23e>
    80201c38:	f4843503          	ld	a0,-184(s0)
    80201c3c:	f4043583          	ld	a1,-192(s0)
    80201c40:	f8a43823          	sd	a0,-112(s0)
    80201c44:	f8b43423          	sd	a1,-120(s0)
    80201c48:	f3843503          	ld	a0,-200(s0)
    80201c4c:	f3043603          	ld	a2,-208(s0)
    80201c50:	f2843683          	ld	a3,-216(s0)
    80201c54:	f2043703          	ld	a4,-224(s0)
    80201c58:	000d3583          	ld	a1,0(s10)
    80201c5c:	000cb783          	ld	a5,0(s9)
    80201c60:	f8a43023          	sd	a0,-128(s0)
    80201c64:	f6c43c23          	sd	a2,-136(s0)
    80201c68:	f6d43823          	sd	a3,-144(s0)
    80201c6c:	f6e43423          	sd	a4,-152(s0)
    80201c70:	00f59a63          	bne	a1,a5,80201c84 <.LBB6_104+0xb0>
    80201c74:	4605                	li	a2,1
    80201c76:	854a                	mv	a0,s2
    80201c78:	00002097          	auipc	ra,0x2
    80201c7c:	2c0080e7          	jalr	704(ra) # 80203f38 <_ZN5alloc7raw_vec19RawVec$LT$T$C$A$GT$7reserve17hcef46bfd9e2455d8E>
    80201c80:	000d3583          	ld	a1,0(s10)
    80201c84:	00093503          	ld	a0,0(s2)
    80201c88:	f9043603          	ld	a2,-112(s0)
    80201c8c:	03000693          	li	a3,48
    80201c90:	02d585b3          	mul	a1,a1,a3
    80201c94:	952e                	add	a0,a0,a1
    80201c96:	f510                	sd	a2,40(a0)
    80201c98:	f8843583          	ld	a1,-120(s0)
    80201c9c:	f10c                	sd	a1,32(a0)
    80201c9e:	f8043583          	ld	a1,-128(s0)
    80201ca2:	ed0c                	sd	a1,24(a0)
    80201ca4:	f7843583          	ld	a1,-136(s0)
    80201ca8:	e90c                	sd	a1,16(a0)
    80201caa:	f7043583          	ld	a1,-144(s0)
    80201cae:	e50c                	sd	a1,8(a0)
    80201cb0:	f6843583          	ld	a1,-152(s0)
    80201cb4:	e10c                	sd	a1,0(a0)
    80201cb6:	000d3503          	ld	a0,0(s10)
    80201cba:	0505                	addi	a0,a0,1
    80201cbc:	00ad3023          	sd	a0,0(s10)
    80201cc0:	f3443023          	sd	s4,-224(s0)

0000000080201cc4 <.LBB6_105>:
    80201cc4:	0000f517          	auipc	a0,0xf
    80201cc8:	80c50513          	addi	a0,a0,-2036 # 802104d0 <.Lanon.d703ab377f544c1c67a4f395927238a9.24>
    80201ccc:	f6a43423          	sd	a0,-152(s0)
    80201cd0:	4505                	li	a0,1
    80201cd2:	f6a43823          	sd	a0,-144(s0)
    80201cd6:	f6043c23          	sd	zero,-136(s0)
    80201cda:	f9843423          	sd	s8,-120(s0)
    80201cde:	f8043823          	sd	zero,-112(s0)

0000000080201ce2 <.LBB6_106>:
    80201ce2:	0000f597          	auipc	a1,0xf
    80201ce6:	f6e58593          	addi	a1,a1,-146 # 80210c50 <anon.3864ce854fd1093fe353f51790d6b615.0.llvm.4080457696073421243>
    80201cea:	f2040b13          	addi	s6,s0,-224
    80201cee:	f6840a13          	addi	s4,s0,-152
    80201cf2:	855a                	mv	a0,s6
    80201cf4:	8652                	mv	a2,s4
    80201cf6:	0000b097          	auipc	ra,0xb
    80201cfa:	5f4080e7          	jalr	1524(ra) # 8020d2ea <_ZN4core3fmt5write17h338141860f5a80fbE>
    80201cfe:	42051263          	bnez	a0,80202122 <.LBB6_112>

0000000080201d02 <.LBB6_107>:
    80201d02:	00226517          	auipc	a0,0x226
    80201d06:	2fe50513          	addi	a0,a0,766 # 80428000 <ebss>
    80201d0a:	00c55b93          	srli	s7,a0,0xc
    80201d0e:	f5743c23          	sd	s7,-168(s0)
    80201d12:	000815b7          	lui	a1,0x81
    80201d16:	8005851b          	addiw	a0,a1,-2048
    80201d1a:	8015859b          	addiw	a1,a1,-2047
    80201d1e:	f6a43023          	sd	a0,-160(s0)
    80201d22:	42bbf563          	bgeu	s7,a1,8020214c <.LBB6_114+0x1a>
    80201d26:	f2a43423          	sd	a0,-216(s0)
    80201d2a:	f6843583          	ld	a1,-152(s0)
    80201d2e:	f3743023          	sd	s7,-224(s0)
    80201d32:	f2043c23          	sd	zero,-200(s0)
    80201d36:	f4043023          	sd	zero,-192(s0)
    80201d3a:	f2b43823          	sd	a1,-208(s0)
    80201d3e:	60000593          	li	a1,1536
    80201d42:	f4b41423          	sh	a1,-184(s0)
    80201d46:	34ab9b63          	bne	s7,a0,8020209c <.LBB6_109+0x2a8>
    80201d4a:	f4843503          	ld	a0,-184(s0)
    80201d4e:	f4043583          	ld	a1,-192(s0)
    80201d52:	f8a43823          	sd	a0,-112(s0)
    80201d56:	f8b43423          	sd	a1,-120(s0)
    80201d5a:	f3843503          	ld	a0,-200(s0)
    80201d5e:	f3043603          	ld	a2,-208(s0)
    80201d62:	f2843683          	ld	a3,-216(s0)
    80201d66:	f2043703          	ld	a4,-224(s0)
    80201d6a:	000d3583          	ld	a1,0(s10)
    80201d6e:	000cb783          	ld	a5,0(s9)
    80201d72:	f8a43023          	sd	a0,-128(s0)
    80201d76:	f6c43c23          	sd	a2,-136(s0)
    80201d7a:	f6d43823          	sd	a3,-144(s0)
    80201d7e:	f6e43423          	sd	a4,-152(s0)
    80201d82:	00f59a63          	bne	a1,a5,80201d96 <.LBB6_107+0x94>
    80201d86:	4605                	li	a2,1
    80201d88:	854a                	mv	a0,s2
    80201d8a:	00002097          	auipc	ra,0x2
    80201d8e:	1ae080e7          	jalr	430(ra) # 80203f38 <_ZN5alloc7raw_vec19RawVec$LT$T$C$A$GT$7reserve17hcef46bfd9e2455d8E>
    80201d92:	000d3583          	ld	a1,0(s10)
    80201d96:	00093503          	ld	a0,0(s2)
    80201d9a:	f9043603          	ld	a2,-112(s0)
    80201d9e:	03000693          	li	a3,48
    80201da2:	02d585b3          	mul	a1,a1,a3
    80201da6:	952e                	add	a0,a0,a1
    80201da8:	f510                	sd	a2,40(a0)
    80201daa:	f8843583          	ld	a1,-120(s0)
    80201dae:	f10c                	sd	a1,32(a0)
    80201db0:	f8043583          	ld	a1,-128(s0)
    80201db4:	ed0c                	sd	a1,24(a0)
    80201db6:	f7843583          	ld	a1,-136(s0)
    80201dba:	e90c                	sd	a1,16(a0)
    80201dbc:	f7043583          	ld	a1,-144(s0)
    80201dc0:	e50c                	sd	a1,8(a0)
    80201dc2:	f6843583          	ld	a1,-152(s0)
    80201dc6:	e10c                	sd	a1,0(a0)
    80201dc8:	000d3503          	ld	a0,0(s10)
    80201dcc:	0505                	addi	a0,a0,1
    80201dce:	00ad3023          	sd	a0,0(s10)
    80201dd2:	f3443023          	sd	s4,-224(s0)

0000000080201dd6 <.LBB6_108>:
    80201dd6:	0000e517          	auipc	a0,0xe
    80201dda:	70a50513          	addi	a0,a0,1802 # 802104e0 <.Lanon.d703ab377f544c1c67a4f395927238a9.26>
    80201dde:	f6a43423          	sd	a0,-152(s0)
    80201de2:	4505                	li	a0,1
    80201de4:	f6a43823          	sd	a0,-144(s0)
    80201de8:	f6043c23          	sd	zero,-136(s0)
    80201dec:	f9843423          	sd	s8,-120(s0)
    80201df0:	f8043823          	sd	zero,-112(s0)

0000000080201df4 <.LBB6_109>:
    80201df4:	0000f597          	auipc	a1,0xf
    80201df8:	e5c58593          	addi	a1,a1,-420 # 80210c50 <anon.3864ce854fd1093fe353f51790d6b615.0.llvm.4080457696073421243>
    80201dfc:	f2040513          	addi	a0,s0,-224
    80201e00:	f6840613          	addi	a2,s0,-152
    80201e04:	0000b097          	auipc	ra,0xb
    80201e08:	4e6080e7          	jalr	1254(ra) # 8020d2ea <_ZN4core3fmt5write17h338141860f5a80fbE>
    80201e0c:	30051b63          	bnez	a0,80202122 <.LBB6_112>
    80201e10:	6541                	lui	a0,0x10
    80201e12:	0025059b          	addiw	a1,a0,2
    80201e16:	f2b43423          	sd	a1,-216(s0)
    80201e1a:	0015059b          	addiw	a1,a0,1
    80201e1e:	f6843503          	ld	a0,-152(s0)
    80201e22:	f2b43023          	sd	a1,-224(s0)
    80201e26:	f2043c23          	sd	zero,-200(s0)
    80201e2a:	f4043023          	sd	zero,-192(s0)
    80201e2e:	f2a43823          	sd	a0,-208(s0)
    80201e32:	60000513          	li	a0,1536
    80201e36:	f4a41423          	sh	a0,-184(s0)
    80201e3a:	4699                	li	a3,6
    80201e3c:	8556                	mv	a0,s5
    80201e3e:	862e                	mv	a2,a1
    80201e40:	00001097          	auipc	ra,0x1
    80201e44:	a32080e7          	jalr	-1486(ra) # 80202872 <_ZN2os2mm10page_table9PageTable3map17h2562fa28cb2e5ceeE>
    80201e48:	f4843503          	ld	a0,-184(s0)
    80201e4c:	f4043583          	ld	a1,-192(s0)
    80201e50:	f8a43823          	sd	a0,-112(s0)
    80201e54:	f8b43423          	sd	a1,-120(s0)
    80201e58:	f3843503          	ld	a0,-200(s0)
    80201e5c:	f3043603          	ld	a2,-208(s0)
    80201e60:	f2843683          	ld	a3,-216(s0)
    80201e64:	f2043703          	ld	a4,-224(s0)
    80201e68:	030ab583          	ld	a1,48(s5)
    80201e6c:	028ab783          	ld	a5,40(s5)
    80201e70:	f8a43023          	sd	a0,-128(s0)
    80201e74:	f6c43c23          	sd	a2,-136(s0)
    80201e78:	f6d43823          	sd	a3,-144(s0)
    80201e7c:	f6e43423          	sd	a4,-152(s0)
    80201e80:	00f59a63          	bne	a1,a5,80201e94 <.LBB6_109+0xa0>
    80201e84:	4605                	li	a2,1
    80201e86:	854a                	mv	a0,s2
    80201e88:	00002097          	auipc	ra,0x2
    80201e8c:	0b0080e7          	jalr	176(ra) # 80203f38 <_ZN5alloc7raw_vec19RawVec$LT$T$C$A$GT$7reserve17hcef46bfd9e2455d8E>
    80201e90:	000d3583          	ld	a1,0(s10)
    80201e94:	00093503          	ld	a0,0(s2)
    80201e98:	f9043603          	ld	a2,-112(s0)
    80201e9c:	03000693          	li	a3,48
    80201ea0:	02d585b3          	mul	a1,a1,a3
    80201ea4:	952e                	add	a0,a0,a1
    80201ea6:	f510                	sd	a2,40(a0)
    80201ea8:	f8843583          	ld	a1,-120(s0)
    80201eac:	f10c                	sd	a1,32(a0)
    80201eae:	f8043583          	ld	a1,-128(s0)
    80201eb2:	ed0c                	sd	a1,24(a0)
    80201eb4:	f7843583          	ld	a1,-136(s0)
    80201eb8:	e90c                	sd	a1,16(a0)
    80201eba:	f7043583          	ld	a1,-144(s0)
    80201ebe:	e50c                	sd	a1,8(a0)
    80201ec0:	f6843583          	ld	a1,-152(s0)
    80201ec4:	e10c                	sd	a1,0(a0)
    80201ec6:	000d3503          	ld	a0,0(s10)
    80201eca:	0505                	addi	a0,a0,1
    80201ecc:	00ad3023          	sd	a0,0(s10)
    80201ed0:	7daa                	ld	s11,168(sp)
    80201ed2:	7d4a                	ld	s10,176(sp)
    80201ed4:	7cea                	ld	s9,184(sp)
    80201ed6:	6c0e                	ld	s8,192(sp)
    80201ed8:	6bae                	ld	s7,200(sp)
    80201eda:	6b4e                	ld	s6,208(sp)
    80201edc:	6aee                	ld	s5,216(sp)
    80201ede:	7a0e                	ld	s4,224(sp)
    80201ee0:	79ae                	ld	s3,232(sp)
    80201ee2:	794e                	ld	s2,240(sp)
    80201ee4:	74ee                	ld	s1,248(sp)
    80201ee6:	6412                	ld	s0,256(sp)
    80201ee8:	60b2                	ld	ra,264(sp)
    80201eea:	6151                	addi	sp,sp,272
    80201eec:	8082                	ret
    80201eee:	4501                	li	a0,0
    80201ef0:	0941                	addi	s2,s2,16
    80201ef2:	6585                	lui	a1,0x1
    80201ef4:	35fd                	addiw	a1,a1,-1
    80201ef6:	95ea                	add	a1,a1,s10
    80201ef8:	4d05                	li	s10,1
    80201efa:	81b1                	srli	a1,a1,0xc
    80201efc:	fff58d93          	addi	s11,a1,-1 # fff <n+0xfdf>
    80201f00:	0ff57513          	andi	a0,a0,255
    80201f04:	84da                	mv	s1,s6
    80201f06:	03a51663          	bne	a0,s10,80201f32 <.LBB6_109+0x13e>
    80201f0a:	00003097          	auipc	ra,0x3
    80201f0e:	b8a080e7          	jalr	-1142(ra) # 80204a94 <_ZN2os2mm15frame_allocator11frame_alloc17ha7fa5a63181a930bE>
    80201f12:	1e050963          	beqz	a0,80202104 <.LBB6_110>
    80201f16:	84ae                	mv	s1,a1
    80201f18:	854a                	mv	a0,s2
    80201f1a:	85da                	mv	a1,s6
    80201f1c:	8626                	mv	a2,s1
    80201f1e:	00001097          	auipc	ra,0x1
    80201f22:	70a080e7          	jalr	1802(ra) # 80203628 <_ZN5alloc11collections5btree3map21BTreeMap$LT$K$C$V$GT$6insert17h7ffcb95ff960a3c5E>
    80201f26:	c511                	beqz	a0,80201f32 <.LBB6_109+0x13e>
    80201f28:	852e                	mv	a0,a1
    80201f2a:	00003097          	auipc	ra,0x3
    80201f2e:	cc6080e7          	jalr	-826(ra) # 80204bf0 <_ZN2os2mm15frame_allocator13frame_dealloc17h4828e963a0fceefbE>
    80201f32:	f4940683          	lb	a3,-183(s0)
    80201f36:	8556                	mv	a0,s5
    80201f38:	85da                	mv	a1,s6
    80201f3a:	8626                	mv	a2,s1
    80201f3c:	00001097          	auipc	ra,0x1
    80201f40:	936080e7          	jalr	-1738(ra) # 80202872 <_ZN2os2mm10page_table9PageTable3map17h2562fa28cb2e5ceeE>
    80201f44:	9b6d8fe3          	beq	s11,s6,80201902 <.LBB6_98+0x5e>
    80201f48:	f4844503          	lbu	a0,-184(s0)
    80201f4c:	0b05                	addi	s6,s6,1
    80201f4e:	0ff57513          	andi	a0,a0,255
    80201f52:	84da                	mv	s1,s6
    80201f54:	fba50be3          	beq	a0,s10,80201f0a <.LBB6_109+0x116>
    80201f58:	bfe9                	j	80201f32 <.LBB6_109+0x13e>
    80201f5a:	4501                	li	a0,0
    80201f5c:	0b41                	addi	s6,s6,16
    80201f5e:	6585                	lui	a1,0x1
    80201f60:	35fd                	addiw	a1,a1,-1
    80201f62:	95b2                	add	a1,a1,a2
    80201f64:	4c85                	li	s9,1
    80201f66:	81b1                	srli	a1,a1,0xc
    80201f68:	fff58d93          	addi	s11,a1,-1 # fff <n+0xfdf>
    80201f6c:	0ff57513          	andi	a0,a0,255
    80201f70:	84de                	mv	s1,s7
    80201f72:	03951663          	bne	a0,s9,80201f9e <.LBB6_109+0x1aa>
    80201f76:	00003097          	auipc	ra,0x3
    80201f7a:	b1e080e7          	jalr	-1250(ra) # 80204a94 <_ZN2os2mm15frame_allocator11frame_alloc17ha7fa5a63181a930bE>
    80201f7e:	18050363          	beqz	a0,80202104 <.LBB6_110>
    80201f82:	84ae                	mv	s1,a1
    80201f84:	855a                	mv	a0,s6
    80201f86:	85de                	mv	a1,s7
    80201f88:	8626                	mv	a2,s1
    80201f8a:	00001097          	auipc	ra,0x1
    80201f8e:	69e080e7          	jalr	1694(ra) # 80203628 <_ZN5alloc11collections5btree3map21BTreeMap$LT$K$C$V$GT$6insert17h7ffcb95ff960a3c5E>
    80201f92:	c511                	beqz	a0,80201f9e <.LBB6_109+0x1aa>
    80201f94:	852e                	mv	a0,a1
    80201f96:	00003097          	auipc	ra,0x3
    80201f9a:	c5a080e7          	jalr	-934(ra) # 80204bf0 <_ZN2os2mm15frame_allocator13frame_dealloc17h4828e963a0fceefbE>
    80201f9e:	f4940683          	lb	a3,-183(s0)
    80201fa2:	8556                	mv	a0,s5
    80201fa4:	85de                	mv	a1,s7
    80201fa6:	8626                	mv	a2,s1
    80201fa8:	00001097          	auipc	ra,0x1
    80201fac:	8ca080e7          	jalr	-1846(ra) # 80202872 <_ZN2os2mm10page_table9PageTable3map17h2562fa28cb2e5ceeE>
    80201fb0:	a77d84e3          	beq	s11,s7,80201a18 <.LBB6_100+0x64>
    80201fb4:	f4844503          	lbu	a0,-184(s0)
    80201fb8:	0b85                	addi	s7,s7,1
    80201fba:	0ff57513          	andi	a0,a0,255
    80201fbe:	84de                	mv	s1,s7
    80201fc0:	fb950be3          	beq	a0,s9,80201f76 <.LBB6_109+0x182>
    80201fc4:	bfe9                	j	80201f9e <.LBB6_109+0x1aa>
    80201fc6:	4501                	li	a0,0
    80201fc8:	0b41                	addi	s6,s6,16
    80201fca:	6585                	lui	a1,0x1
    80201fcc:	35fd                	addiw	a1,a1,-1
    80201fce:	95b2                	add	a1,a1,a2
    80201fd0:	4985                	li	s3,1
    80201fd2:	81b1                	srli	a1,a1,0xc
    80201fd4:	fff58d93          	addi	s11,a1,-1 # fff <n+0xfdf>
    80201fd8:	0ff57513          	andi	a0,a0,255
    80201fdc:	84de                	mv	s1,s7
    80201fde:	03351663          	bne	a0,s3,8020200a <.LBB6_109+0x216>
    80201fe2:	00003097          	auipc	ra,0x3
    80201fe6:	ab2080e7          	jalr	-1358(ra) # 80204a94 <_ZN2os2mm15frame_allocator11frame_alloc17ha7fa5a63181a930bE>
    80201fea:	10050d63          	beqz	a0,80202104 <.LBB6_110>
    80201fee:	84ae                	mv	s1,a1
    80201ff0:	855a                	mv	a0,s6
    80201ff2:	85de                	mv	a1,s7
    80201ff4:	8626                	mv	a2,s1
    80201ff6:	00001097          	auipc	ra,0x1
    80201ffa:	632080e7          	jalr	1586(ra) # 80203628 <_ZN5alloc11collections5btree3map21BTreeMap$LT$K$C$V$GT$6insert17h7ffcb95ff960a3c5E>
    80201ffe:	c511                	beqz	a0,8020200a <.LBB6_109+0x216>
    80202000:	852e                	mv	a0,a1
    80202002:	00003097          	auipc	ra,0x3
    80202006:	bee080e7          	jalr	-1042(ra) # 80204bf0 <_ZN2os2mm15frame_allocator13frame_dealloc17h4828e963a0fceefbE>
    8020200a:	f4940683          	lb	a3,-183(s0)
    8020200e:	8556                	mv	a0,s5
    80202010:	85de                	mv	a1,s7
    80202012:	8626                	mv	a2,s1
    80202014:	00001097          	auipc	ra,0x1
    80202018:	85e080e7          	jalr	-1954(ra) # 80202872 <_ZN2os2mm10page_table9PageTable3map17h2562fa28cb2e5ceeE>
    8020201c:	b17d87e3          	beq	s11,s7,80201b2a <.LBB6_102+0x64>
    80202020:	f4844503          	lbu	a0,-184(s0)
    80202024:	0b85                	addi	s7,s7,1
    80202026:	0ff57513          	andi	a0,a0,255
    8020202a:	84de                	mv	s1,s7
    8020202c:	fb350be3          	beq	a0,s3,80201fe2 <.LBB6_109+0x1ee>
    80202030:	bfe9                	j	8020200a <.LBB6_109+0x216>
    80202032:	4501                	li	a0,0
    80202034:	0b41                	addi	s6,s6,16
    80202036:	6585                	lui	a1,0x1
    80202038:	35fd                	addiw	a1,a1,-1
    8020203a:	95b2                	add	a1,a1,a2
    8020203c:	4985                	li	s3,1
    8020203e:	81b1                	srli	a1,a1,0xc
    80202040:	fff58d93          	addi	s11,a1,-1 # fff <n+0xfdf>
    80202044:	0ff57513          	andi	a0,a0,255
    80202048:	84de                	mv	s1,s7
    8020204a:	03351563          	bne	a0,s3,80202074 <.LBB6_109+0x280>
    8020204e:	00003097          	auipc	ra,0x3
    80202052:	a46080e7          	jalr	-1466(ra) # 80204a94 <_ZN2os2mm15frame_allocator11frame_alloc17ha7fa5a63181a930bE>
    80202056:	c55d                	beqz	a0,80202104 <.LBB6_110>
    80202058:	84ae                	mv	s1,a1
    8020205a:	855a                	mv	a0,s6
    8020205c:	85de                	mv	a1,s7
    8020205e:	8626                	mv	a2,s1
    80202060:	00001097          	auipc	ra,0x1
    80202064:	5c8080e7          	jalr	1480(ra) # 80203628 <_ZN5alloc11collections5btree3map21BTreeMap$LT$K$C$V$GT$6insert17h7ffcb95ff960a3c5E>
    80202068:	c511                	beqz	a0,80202074 <.LBB6_109+0x280>
    8020206a:	852e                	mv	a0,a1
    8020206c:	00003097          	auipc	ra,0x3
    80202070:	b84080e7          	jalr	-1148(ra) # 80204bf0 <_ZN2os2mm15frame_allocator13frame_dealloc17h4828e963a0fceefbE>
    80202074:	f4940683          	lb	a3,-183(s0)
    80202078:	8556                	mv	a0,s5
    8020207a:	85de                	mv	a1,s7
    8020207c:	8626                	mv	a2,s1
    8020207e:	00000097          	auipc	ra,0x0
    80202082:	7f4080e7          	jalr	2036(ra) # 80202872 <_ZN2os2mm10page_table9PageTable3map17h2562fa28cb2e5ceeE>
    80202086:	bb7d89e3          	beq	s11,s7,80201c38 <.LBB6_104+0x64>
    8020208a:	f4844503          	lbu	a0,-184(s0)
    8020208e:	0b85                	addi	s7,s7,1
    80202090:	0ff57513          	andi	a0,a0,255
    80202094:	84de                	mv	s1,s7
    80202096:	fb350ce3          	beq	a0,s3,8020204e <.LBB6_109+0x25a>
    8020209a:	bfe9                	j	80202074 <.LBB6_109+0x280>
    8020209c:	4501                	li	a0,0
    8020209e:	010b0993          	addi	s3,s6,16
    802020a2:	4b05                	li	s6,1
    802020a4:	000805b7          	lui	a1,0x80
    802020a8:	7ff58d9b          	addiw	s11,a1,2047
    802020ac:	0ff57513          	andi	a0,a0,255
    802020b0:	84de                	mv	s1,s7
    802020b2:	03651563          	bne	a0,s6,802020dc <.LBB6_109+0x2e8>
    802020b6:	00003097          	auipc	ra,0x3
    802020ba:	9de080e7          	jalr	-1570(ra) # 80204a94 <_ZN2os2mm15frame_allocator11frame_alloc17ha7fa5a63181a930bE>
    802020be:	c139                	beqz	a0,80202104 <.LBB6_110>
    802020c0:	84ae                	mv	s1,a1
    802020c2:	854e                	mv	a0,s3
    802020c4:	85de                	mv	a1,s7
    802020c6:	8626                	mv	a2,s1
    802020c8:	00001097          	auipc	ra,0x1
    802020cc:	560080e7          	jalr	1376(ra) # 80203628 <_ZN5alloc11collections5btree3map21BTreeMap$LT$K$C$V$GT$6insert17h7ffcb95ff960a3c5E>
    802020d0:	c511                	beqz	a0,802020dc <.LBB6_109+0x2e8>
    802020d2:	852e                	mv	a0,a1
    802020d4:	00003097          	auipc	ra,0x3
    802020d8:	b1c080e7          	jalr	-1252(ra) # 80204bf0 <_ZN2os2mm15frame_allocator13frame_dealloc17h4828e963a0fceefbE>
    802020dc:	f4940683          	lb	a3,-183(s0)
    802020e0:	8556                	mv	a0,s5
    802020e2:	85de                	mv	a1,s7
    802020e4:	8626                	mv	a2,s1
    802020e6:	00000097          	auipc	ra,0x0
    802020ea:	78c080e7          	jalr	1932(ra) # 80202872 <_ZN2os2mm10page_table9PageTable3map17h2562fa28cb2e5ceeE>
    802020ee:	c5bb8ee3          	beq	s7,s11,80201d4a <.LBB6_107+0x48>
    802020f2:	f4844503          	lbu	a0,-184(s0)
    802020f6:	0b85                	addi	s7,s7,1
    802020f8:	0ff57513          	andi	a0,a0,255
    802020fc:	84de                	mv	s1,s7
    802020fe:	fb650ce3          	beq	a0,s6,802020b6 <.LBB6_109+0x2c2>
    80202102:	bfe9                	j	802020dc <.LBB6_109+0x2e8>

0000000080202104 <.LBB6_110>:
    80202104:	0000e517          	auipc	a0,0xe
    80202108:	18c50513          	addi	a0,a0,396 # 80210290 <anon.d703ab377f544c1c67a4f395927238a9.0.llvm.2267159439163783160>

000000008020210c <.LBB6_111>:
    8020210c:	0000e617          	auipc	a2,0xe
    80202110:	46460613          	addi	a2,a2,1124 # 80210570 <anon.d703ab377f544c1c67a4f395927238a9.46.llvm.2267159439163783160>
    80202114:	02b00593          	li	a1,43
    80202118:	0000b097          	auipc	ra,0xb
    8020211c:	956080e7          	jalr	-1706(ra) # 8020ca6e <_ZN4core9panicking5panic17h4214b4eed8d3f37fE>
	...

0000000080202122 <.LBB6_112>:
    80202122:	0000f517          	auipc	a0,0xf
    80202126:	b5e50513          	addi	a0,a0,-1186 # 80210c80 <anon.3864ce854fd1093fe353f51790d6b615.1.llvm.4080457696073421243>

000000008020212a <.LBB6_113>:
    8020212a:	0000f697          	auipc	a3,0xf
    8020212e:	b8668693          	addi	a3,a3,-1146 # 80210cb0 <anon.3864ce854fd1093fe353f51790d6b615.2.llvm.4080457696073421243>

0000000080202132 <.LBB6_114>:
    80202132:	0000f717          	auipc	a4,0xf
    80202136:	bce70713          	addi	a4,a4,-1074 # 80210d00 <anon.3864ce854fd1093fe353f51790d6b615.8.llvm.4080457696073421243>
    8020213a:	f6840613          	addi	a2,s0,-152
    8020213e:	02b00593          	li	a1,43
    80202142:	0000b097          	auipc	ra,0xb
    80202146:	8cc080e7          	jalr	-1844(ra) # 8020ca0e <_ZN4core6option18expect_none_failed17hf4b8b266798017eaE>
    8020214a:	0000                	unimp
    8020214c:	f5840513          	addi	a0,s0,-168
    80202150:	f2a43023          	sd	a0,-224(s0)

0000000080202154 <.LBB6_115>:
    80202154:	00001517          	auipc	a0,0x1
    80202158:	43c50513          	addi	a0,a0,1084 # 80203590 <_ZN65_$LT$os..mm..address..VirtPageNum$u20$as$u20$core..fmt..Debug$GT$3fmt17haac55a57cbe0682cE>
    8020215c:	f2a43423          	sd	a0,-216(s0)
    80202160:	f6040593          	addi	a1,s0,-160
    80202164:	f2b43823          	sd	a1,-208(s0)
    80202168:	a0c5                	j	80202248 <.LBB6_124+0x10>

000000008020216a <.LBB6_116>:
    8020216a:	0000e517          	auipc	a0,0xe
    8020216e:	4de50513          	addi	a0,a0,1246 # 80210648 <anon.f2b1b5a509bdedcdd67207527f4f0965.0.llvm.1283535708719223612>

0000000080202172 <.LBB6_117>:
    80202172:	0000e617          	auipc	a2,0xe
    80202176:	51660613          	addi	a2,a2,1302 # 80210688 <anon.f2b1b5a509bdedcdd67207527f4f0965.2.llvm.1283535708719223612>
    8020217a:	02b00593          	li	a1,43
    8020217e:	0000b097          	auipc	ra,0xb
    80202182:	8f0080e7          	jalr	-1808(ra) # 8020ca6e <_ZN4core9panicking5panic17h4214b4eed8d3f37fE>
    80202186:	0000                	unimp
    80202188:	4521                	li	a0,8
    8020218a:	45a1                	li	a1,8
    8020218c:	0000a097          	auipc	ra,0xa
    80202190:	540080e7          	jalr	1344(ra) # 8020c6cc <_ZN5alloc5alloc18handle_alloc_error17hd88389f3109c4dfdE>
    80202194:	0000                	unimp
    80202196:	f5040513          	addi	a0,s0,-176
    8020219a:	f4a43c23          	sd	a0,-168(s0)

000000008020219e <.LBB6_118>:
    8020219e:	0000f517          	auipc	a0,0xf
    802021a2:	da250513          	addi	a0,a0,-606 # 80210f40 <anon.ddabf61bdaac86f64641ec60e3e20b8f.9.llvm.5641346452209144398>
    802021a6:	f6a43023          	sd	a0,-160(s0)
    802021aa:	f5840513          	addi	a0,s0,-168
    802021ae:	f2a43023          	sd	a0,-224(s0)

00000000802021b2 <.LBB6_119>:
    802021b2:	00001517          	auipc	a0,0x1
    802021b6:	2f050513          	addi	a0,a0,752 # 802034a2 <_ZN42_$LT$$RF$T$u20$as$u20$core..fmt..Debug$GT$3fmt17h2738cfdee3e896f9E>
    802021ba:	f2a43423          	sd	a0,-216(s0)
    802021be:	f6040593          	addi	a1,s0,-160
    802021c2:	f2b43823          	sd	a1,-208(s0)
    802021c6:	f2a43c23          	sd	a0,-200(s0)

00000000802021ca <.LBB6_120>:
    802021ca:	0000f517          	auipc	a0,0xf
    802021ce:	dd650513          	addi	a0,a0,-554 # 80210fa0 <anon.ddabf61bdaac86f64641ec60e3e20b8f.13.llvm.5641346452209144398>
    802021d2:	f6a43423          	sd	a0,-152(s0)
    802021d6:	450d                	li	a0,3
    802021d8:	f6a43823          	sd	a0,-144(s0)
    802021dc:	f6043c23          	sd	zero,-136(s0)
    802021e0:	f2040513          	addi	a0,s0,-224
    802021e4:	f8a43423          	sd	a0,-120(s0)
    802021e8:	4509                	li	a0,2
    802021ea:	f8a43823          	sd	a0,-112(s0)

00000000802021ee <.LBB6_121>:
    802021ee:	0000f597          	auipc	a1,0xf
    802021f2:	dfa58593          	addi	a1,a1,-518 # 80210fe8 <anon.ddabf61bdaac86f64641ec60e3e20b8f.16.llvm.5641346452209144398>
    802021f6:	a8bd                	j	80202274 <.LBB6_126+0x8>
    802021f8:	f5840513          	addi	a0,s0,-168
    802021fc:	f2a43023          	sd	a0,-224(s0)

0000000080202200 <.LBB6_122>:
    80202200:	00001517          	auipc	a0,0x1
    80202204:	39050513          	addi	a0,a0,912 # 80203590 <_ZN65_$LT$os..mm..address..VirtPageNum$u20$as$u20$core..fmt..Debug$GT$3fmt17haac55a57cbe0682cE>
    80202208:	f2a43423          	sd	a0,-216(s0)
    8020220c:	f3343823          	sd	s3,-208(s0)
    80202210:	f2a43c23          	sd	a0,-200(s0)

0000000080202214 <.LBB6_123>:
    80202214:	0000f517          	auipc	a0,0xf
    80202218:	dfc50513          	addi	a0,a0,-516 # 80211010 <anon.ddabf61bdaac86f64641ec60e3e20b8f.22.llvm.5641346452209144398>
    8020221c:	f6a43423          	sd	a0,-152(s0)
    80202220:	450d                	li	a0,3
    80202222:	f6a43823          	sd	a0,-144(s0)
    80202226:	f6043c23          	sd	zero,-136(s0)
    8020222a:	f9243423          	sd	s2,-120(s0)
    8020222e:	a825                	j	80202266 <.LBB6_125+0x1a>
    80202230:	f5840513          	addi	a0,s0,-168
    80202234:	f2a43023          	sd	a0,-224(s0)

0000000080202238 <.LBB6_124>:
    80202238:	00001517          	auipc	a0,0x1
    8020223c:	35850513          	addi	a0,a0,856 # 80203590 <_ZN65_$LT$os..mm..address..VirtPageNum$u20$as$u20$core..fmt..Debug$GT$3fmt17haac55a57cbe0682cE>
    80202240:	f2a43423          	sd	a0,-216(s0)
    80202244:	f3343823          	sd	s3,-208(s0)
    80202248:	f2a43c23          	sd	a0,-200(s0)

000000008020224c <.LBB6_125>:
    8020224c:	0000f517          	auipc	a0,0xf
    80202250:	dc450513          	addi	a0,a0,-572 # 80211010 <anon.ddabf61bdaac86f64641ec60e3e20b8f.22.llvm.5641346452209144398>
    80202254:	f6a43423          	sd	a0,-152(s0)
    80202258:	450d                	li	a0,3
    8020225a:	f6a43823          	sd	a0,-144(s0)
    8020225e:	f6043c23          	sd	zero,-136(s0)
    80202262:	f9643423          	sd	s6,-120(s0)
    80202266:	4509                	li	a0,2
    80202268:	f8a43823          	sd	a0,-112(s0)

000000008020226c <.LBB6_126>:
    8020226c:	0000f597          	auipc	a1,0xf
    80202270:	dd458593          	addi	a1,a1,-556 # 80211040 <anon.ddabf61bdaac86f64641ec60e3e20b8f.23.llvm.5641346452209144398>
    80202274:	f6840513          	addi	a0,s0,-152
    80202278:	0000b097          	auipc	ra,0xb
    8020227c:	862080e7          	jalr	-1950(ra) # 8020cada <_ZN4core9panicking9panic_fmt17ha4e041b5d1f17023E>
	...

0000000080202282 <_ZN2os2mm10memory_set10remap_test17h8207b0ea6d972ca4E>:
    80202282:	7175                	addi	sp,sp,-144
    80202284:	e506                	sd	ra,136(sp)
    80202286:	e122                	sd	s0,128(sp)
    80202288:	fca6                	sd	s1,120(sp)
    8020228a:	f8ca                	sd	s2,112(sp)
    8020228c:	f4ce                	sd	s3,104(sp)
    8020228e:	0900                	addi	s0,sp,144

0000000080202290 <.LBB17_32>:
    80202290:	00025517          	auipc	a0,0x25
    80202294:	d7050513          	addi	a0,a0,-656 # 80227000 <boot_stack_top>
    80202298:	00002097          	auipc	ra,0x2
    8020229c:	18e080e7          	jalr	398(ra) # 80204426 <_ZN4spin4once13Once$LT$T$GT$9call_once17h98b26a3fa58e103eE>
    802022a0:	00053983          	ld	s3,0(a0)
    802022a4:	01098513          	addi	a0,s3,16
    802022a8:	4585                	li	a1,1
    802022aa:	00b5392f          	amoadd.d	s2,a1,(a0)
    802022ae:	0189b503          	ld	a0,24(s3)
    802022b2:	0230000f          	fence	r,rw
    802022b6:	ff251ce3          	bne	a0,s2,802022ae <.LBB17_32+0x1e>
    802022ba:	4505                	li	a0,1
    802022bc:	1532                	slli	a0,a0,0x2c
    802022be:	fff50293          	addi	t0,a0,-1
    802022c2:	0209b583          	ld	a1,32(s3)

00000000802022c6 <.LBB17_33>:
    802022c6:	0000e517          	auipc	a0,0xe
    802022ca:	d3a50513          	addi	a0,a0,-710 # 80210000 <etext>

00000000802022ce <.LBB17_34>:
    802022ce:	ffffe617          	auipc	a2,0xffffe
    802022d2:	d3260613          	addi	a2,a2,-718 # 80200000 <_start>
    802022d6:	9532                	add	a0,a0,a2
    802022d8:	00d55613          	srli	a2,a0,0xd
    802022dc:	1ff67613          	andi	a2,a2,511
    802022e0:	fac43c23          	sd	a2,-72(s0)
    802022e4:	01655613          	srli	a2,a0,0x16
    802022e8:	1ff67613          	andi	a2,a2,511
    802022ec:	fac43823          	sd	a2,-80(s0)
    802022f0:	817d                	srli	a0,a0,0x1f
    802022f2:	1ff57513          	andi	a0,a0,511
    802022f6:	faa43423          	sd	a0,-88(s0)
    802022fa:	4621                	li	a2,8
    802022fc:	02000893          	li	a7,32
    80202300:	fa840813          	addi	a6,s0,-88
    80202304:	20000493          	li	s1,512
    80202308:	86ae                	mv	a3,a1
    8020230a:	06b2                	slli	a3,a3,0xc
    8020230c:	050e                	slli	a0,a0,0x3
    8020230e:	00860793          	addi	a5,a2,8
    80202312:	9536                	add	a0,a0,a3
    80202314:	03178263          	beq	a5,a7,80202338 <.LBB17_34+0x6a>
    80202318:	6114                	ld	a3,0(a0)
    8020231a:	0016f513          	andi	a0,a3,1
    8020231e:	18050e63          	beqz	a0,802024ba <.LBB17_43>
    80202322:	00c80533          	add	a0,a6,a2
    80202326:	6108                	ld	a0,0(a0)
    80202328:	00a6d613          	srli	a2,a3,0xa
    8020232c:	005676b3          	and	a3,a2,t0
    80202330:	863e                	mv	a2,a5
    80202332:	fc956ce3          	bltu	a0,s1,8020230a <.LBB17_34+0x3c>
    80202336:	a8f5                	j	80202432 <.LBB17_39>
    80202338:	18068163          	beqz	a3,802024ba <.LBB17_43>
    8020233c:	6108                	ld	a0,0(a0)
    8020233e:	8911                	andi	a0,a0,4
    80202340:	00255613          	srli	a2,a0,0x2
    80202344:	f6c40ba3          	sb	a2,-137(s0)
    80202348:	1a051a63          	bnez	a0,802024fc <.LBB17_48+0x16>

000000008020234c <.LBB17_35>:
    8020234c:	00014517          	auipc	a0,0x14
    80202350:	cb450513          	addi	a0,a0,-844 # 80216000 <erodata>

0000000080202354 <.LBB17_36>:
    80202354:	0000e617          	auipc	a2,0xe
    80202358:	cac60613          	addi	a2,a2,-852 # 80210000 <etext>
    8020235c:	9532                	add	a0,a0,a2
    8020235e:	00d55613          	srli	a2,a0,0xd
    80202362:	1ff67613          	andi	a2,a2,511
    80202366:	fac43c23          	sd	a2,-72(s0)
    8020236a:	01655613          	srli	a2,a0,0x16
    8020236e:	1ff67613          	andi	a2,a2,511
    80202372:	fac43823          	sd	a2,-80(s0)
    80202376:	817d                	srli	a0,a0,0x1f
    80202378:	1ff57513          	andi	a0,a0,511
    8020237c:	faa43423          	sd	a0,-88(s0)
    80202380:	44a1                	li	s1,8
    80202382:	02000693          	li	a3,32
    80202386:	20000793          	li	a5,512
    8020238a:	872e                	mv	a4,a1
    8020238c:	0732                	slli	a4,a4,0xc
    8020238e:	050e                	slli	a0,a0,0x3
    80202390:	00848613          	addi	a2,s1,8
    80202394:	953a                	add	a0,a0,a4
    80202396:	02d60163          	beq	a2,a3,802023b8 <.LBB17_36+0x64>
    8020239a:	6118                	ld	a4,0(a0)
    8020239c:	00177513          	andi	a0,a4,1
    802023a0:	12050663          	beqz	a0,802024cc <.LBB17_45>
    802023a4:	00980533          	add	a0,a6,s1
    802023a8:	6108                	ld	a0,0(a0)
    802023aa:	8329                	srli	a4,a4,0xa
    802023ac:	00577733          	and	a4,a4,t0
    802023b0:	84b2                	mv	s1,a2
    802023b2:	fcf56de3          	bltu	a0,a5,8020238c <.LBB17_36+0x38>
    802023b6:	a8b5                	j	80202432 <.LBB17_39>
    802023b8:	10070a63          	beqz	a4,802024cc <.LBB17_45>
    802023bc:	6108                	ld	a0,0(a0)
    802023be:	8911                	andi	a0,a0,4
    802023c0:	00255613          	srli	a2,a0,0x2
    802023c4:	f6c40ba3          	sb	a2,-137(s0)
    802023c8:	18051b63          	bnez	a0,8020255e <.LBB17_52+0xa>

00000000802023cc <.LBB17_37>:
    802023cc:	00015517          	auipc	a0,0x15
    802023d0:	c3450513          	addi	a0,a0,-972 # 80217000 <edata>

00000000802023d4 <.LBB17_38>:
    802023d4:	00014617          	auipc	a2,0x14
    802023d8:	c2c60613          	addi	a2,a2,-980 # 80216000 <erodata>
    802023dc:	9532                	add	a0,a0,a2
    802023de:	00d55613          	srli	a2,a0,0xd
    802023e2:	1ff67613          	andi	a2,a2,511
    802023e6:	fac43c23          	sd	a2,-72(s0)
    802023ea:	01655613          	srli	a2,a0,0x16
    802023ee:	1ff67613          	andi	a2,a2,511
    802023f2:	fac43823          	sd	a2,-80(s0)
    802023f6:	817d                	srli	a0,a0,0x1f
    802023f8:	1ff57513          	andi	a0,a0,511
    802023fc:	faa43423          	sd	a0,-88(s0)
    80202400:	44a1                	li	s1,8
    80202402:	02000693          	li	a3,32
    80202406:	20000793          	li	a5,512
    8020240a:	05b2                	slli	a1,a1,0xc
    8020240c:	050e                	slli	a0,a0,0x3
    8020240e:	00848613          	addi	a2,s1,8
    80202412:	952e                	add	a0,a0,a1
    80202414:	02d60a63          	beq	a2,a3,80202448 <.LBB17_39+0x16>
    80202418:	610c                	ld	a1,0(a0)
    8020241a:	0015f513          	andi	a0,a1,1
    8020241e:	c161                	beqz	a0,802024de <.LBB17_47>
    80202420:	00980533          	add	a0,a6,s1
    80202424:	6108                	ld	a0,0(a0)
    80202426:	81a9                	srli	a1,a1,0xa
    80202428:	0055f5b3          	and	a1,a1,t0
    8020242c:	84b2                	mv	s1,a2
    8020242e:	fcf56ee3          	bltu	a0,a5,8020240a <.LBB17_38+0x36>

0000000080202432 <.LBB17_39>:
    80202432:	0000e617          	auipc	a2,0xe
    80202436:	3ae60613          	addi	a2,a2,942 # 802107e0 <anon.f2b1b5a509bdedcdd67207527f4f0965.13.llvm.1283535708719223612>
    8020243a:	20000593          	li	a1,512
    8020243e:	0000a097          	auipc	ra,0xa
    80202442:	65c080e7          	jalr	1628(ra) # 8020ca9a <_ZN4core9panicking18panic_bounds_check17ha760e6d8204f3836E>
    80202446:	0000                	unimp
    80202448:	c9d9                	beqz	a1,802024de <.LBB17_47>
    8020244a:	6108                	ld	a0,0(a0)
    8020244c:	8921                	andi	a0,a0,8
    8020244e:	00355593          	srli	a1,a0,0x3
    80202452:	f6b40ba3          	sb	a1,-137(s0)
    80202456:	16051563          	bnez	a0,802025c0 <.LBB17_56+0xa>
    8020245a:	f7043c23          	sd	a6,-136(s0)

000000008020245e <.LBB17_40>:
    8020245e:	0000e517          	auipc	a0,0xe
    80202462:	1da50513          	addi	a0,a0,474 # 80210638 <.Lanon.d703ab377f544c1c67a4f395927238a9.66>
    80202466:	faa43423          	sd	a0,-88(s0)
    8020246a:	4505                	li	a0,1
    8020246c:	faa43823          	sd	a0,-80(s0)
    80202470:	fa043c23          	sd	zero,-72(s0)

0000000080202474 <.LBB17_41>:
    80202474:	0000e517          	auipc	a0,0xe
    80202478:	1d450513          	addi	a0,a0,468 # 80210648 <anon.f2b1b5a509bdedcdd67207527f4f0965.0.llvm.1283535708719223612>
    8020247c:	fca43423          	sd	a0,-56(s0)
    80202480:	fc043823          	sd	zero,-48(s0)

0000000080202484 <.LBB17_42>:
    80202484:	0000e597          	auipc	a1,0xe
    80202488:	7cc58593          	addi	a1,a1,1996 # 80210c50 <anon.3864ce854fd1093fe353f51790d6b615.0.llvm.4080457696073421243>
    8020248c:	f7840513          	addi	a0,s0,-136
    80202490:	fa840613          	addi	a2,s0,-88
    80202494:	0000b097          	auipc	ra,0xb
    80202498:	e56080e7          	jalr	-426(ra) # 8020d2ea <_ZN4core3fmt5write17h338141860f5a80fbE>
    8020249c:	18051963          	bnez	a0,8020262e <.LBB17_61>
    802024a0:	00190513          	addi	a0,s2,1
    802024a4:	0310000f          	fence	rw,w
    802024a8:	00a9bc23          	sd	a0,24(s3)
    802024ac:	79a6                	ld	s3,104(sp)
    802024ae:	7946                	ld	s2,112(sp)
    802024b0:	74e6                	ld	s1,120(sp)
    802024b2:	640a                	ld	s0,128(sp)
    802024b4:	60aa                	ld	ra,136(sp)
    802024b6:	6149                	addi	sp,sp,144
    802024b8:	8082                	ret

00000000802024ba <.LBB17_43>:
    802024ba:	0000e517          	auipc	a0,0xe
    802024be:	dd650513          	addi	a0,a0,-554 # 80210290 <anon.d703ab377f544c1c67a4f395927238a9.0.llvm.2267159439163783160>

00000000802024c2 <.LBB17_44>:
    802024c2:	0000e617          	auipc	a2,0xe
    802024c6:	0c660613          	addi	a2,a2,198 # 80210588 <.Lanon.d703ab377f544c1c67a4f395927238a9.58>
    802024ca:	a015                	j	802024ee <.LBB17_48+0x8>

00000000802024cc <.LBB17_45>:
    802024cc:	0000e517          	auipc	a0,0xe
    802024d0:	dc450513          	addi	a0,a0,-572 # 80210290 <anon.d703ab377f544c1c67a4f395927238a9.0.llvm.2267159439163783160>

00000000802024d4 <.LBB17_46>:
    802024d4:	0000e617          	auipc	a2,0xe
    802024d8:	0ec60613          	addi	a2,a2,236 # 802105c0 <.Lanon.d703ab377f544c1c67a4f395927238a9.61>
    802024dc:	a809                	j	802024ee <.LBB17_48+0x8>

00000000802024de <.LBB17_47>:
    802024de:	0000e517          	auipc	a0,0xe
    802024e2:	db250513          	addi	a0,a0,-590 # 80210290 <anon.d703ab377f544c1c67a4f395927238a9.0.llvm.2267159439163783160>

00000000802024e6 <.LBB17_48>:
    802024e6:	0000e617          	auipc	a2,0xe
    802024ea:	10a60613          	addi	a2,a2,266 # 802105f0 <.Lanon.d703ab377f544c1c67a4f395927238a9.63>
    802024ee:	02b00593          	li	a1,43
    802024f2:	0000a097          	auipc	ra,0xa
    802024f6:	57c080e7          	jalr	1404(ra) # 8020ca6e <_ZN4core9panicking5panic17h4214b4eed8d3f37fE>
    802024fa:	0000                	unimp
    802024fc:	f7740513          	addi	a0,s0,-137
    80202500:	f8a43c23          	sd	a0,-104(s0)

0000000080202504 <.LBB17_49>:
    80202504:	0000e517          	auipc	a0,0xe
    80202508:	09c50513          	addi	a0,a0,156 # 802105a0 <.Lanon.d703ab377f544c1c67a4f395927238a9.59>
    8020250c:	faa43023          	sd	a0,-96(s0)
    80202510:	f9840513          	addi	a0,s0,-104
    80202514:	f6a43c23          	sd	a0,-136(s0)

0000000080202518 <.LBB17_50>:
    80202518:	00001517          	auipc	a0,0x1
    8020251c:	ff650513          	addi	a0,a0,-10 # 8020350e <_ZN42_$LT$$RF$T$u20$as$u20$core..fmt..Debug$GT$3fmt17hbeae5384057dd4eaE>
    80202520:	f8a43023          	sd	a0,-128(s0)
    80202524:	fa040593          	addi	a1,s0,-96
    80202528:	f8b43423          	sd	a1,-120(s0)
    8020252c:	f8a43823          	sd	a0,-112(s0)

0000000080202530 <.LBB17_51>:
    80202530:	0000e517          	auipc	a0,0xe
    80202534:	01050513          	addi	a0,a0,16 # 80210540 <.Lanon.d703ab377f544c1c67a4f395927238a9.44>
    80202538:	faa43423          	sd	a0,-88(s0)
    8020253c:	450d                	li	a0,3
    8020253e:	faa43823          	sd	a0,-80(s0)
    80202542:	fa043c23          	sd	zero,-72(s0)
    80202546:	f7840513          	addi	a0,s0,-136
    8020254a:	fca43423          	sd	a0,-56(s0)
    8020254e:	4509                	li	a0,2
    80202550:	fca43823          	sd	a0,-48(s0)

0000000080202554 <.LBB17_52>:
    80202554:	0000e597          	auipc	a1,0xe
    80202558:	05458593          	addi	a1,a1,84 # 802105a8 <.Lanon.d703ab377f544c1c67a4f395927238a9.60>
    8020255c:	a0d1                	j	80202620 <.LBB17_60+0x8>
    8020255e:	f7740513          	addi	a0,s0,-137
    80202562:	f8a43c23          	sd	a0,-104(s0)

0000000080202566 <.LBB17_53>:
    80202566:	0000e517          	auipc	a0,0xe
    8020256a:	03a50513          	addi	a0,a0,58 # 802105a0 <.Lanon.d703ab377f544c1c67a4f395927238a9.59>
    8020256e:	faa43023          	sd	a0,-96(s0)
    80202572:	f9840513          	addi	a0,s0,-104
    80202576:	f6a43c23          	sd	a0,-136(s0)

000000008020257a <.LBB17_54>:
    8020257a:	00001517          	auipc	a0,0x1
    8020257e:	f9450513          	addi	a0,a0,-108 # 8020350e <_ZN42_$LT$$RF$T$u20$as$u20$core..fmt..Debug$GT$3fmt17hbeae5384057dd4eaE>
    80202582:	f8a43023          	sd	a0,-128(s0)
    80202586:	fa040593          	addi	a1,s0,-96
    8020258a:	f8b43423          	sd	a1,-120(s0)
    8020258e:	f8a43823          	sd	a0,-112(s0)

0000000080202592 <.LBB17_55>:
    80202592:	0000e517          	auipc	a0,0xe
    80202596:	fae50513          	addi	a0,a0,-82 # 80210540 <.Lanon.d703ab377f544c1c67a4f395927238a9.44>
    8020259a:	faa43423          	sd	a0,-88(s0)
    8020259e:	450d                	li	a0,3
    802025a0:	faa43823          	sd	a0,-80(s0)
    802025a4:	fa043c23          	sd	zero,-72(s0)
    802025a8:	f7840513          	addi	a0,s0,-136
    802025ac:	fca43423          	sd	a0,-56(s0)
    802025b0:	4509                	li	a0,2
    802025b2:	fca43823          	sd	a0,-48(s0)

00000000802025b6 <.LBB17_56>:
    802025b6:	0000e597          	auipc	a1,0xe
    802025ba:	02258593          	addi	a1,a1,34 # 802105d8 <.Lanon.d703ab377f544c1c67a4f395927238a9.62>
    802025be:	a08d                	j	80202620 <.LBB17_60+0x8>
    802025c0:	f7740513          	addi	a0,s0,-137
    802025c4:	f8a43c23          	sd	a0,-104(s0)

00000000802025c8 <.LBB17_57>:
    802025c8:	0000e517          	auipc	a0,0xe
    802025cc:	fd850513          	addi	a0,a0,-40 # 802105a0 <.Lanon.d703ab377f544c1c67a4f395927238a9.59>
    802025d0:	faa43023          	sd	a0,-96(s0)
    802025d4:	f9840513          	addi	a0,s0,-104
    802025d8:	f6a43c23          	sd	a0,-136(s0)

00000000802025dc <.LBB17_58>:
    802025dc:	00001517          	auipc	a0,0x1
    802025e0:	f3250513          	addi	a0,a0,-206 # 8020350e <_ZN42_$LT$$RF$T$u20$as$u20$core..fmt..Debug$GT$3fmt17hbeae5384057dd4eaE>
    802025e4:	f8a43023          	sd	a0,-128(s0)
    802025e8:	fa040593          	addi	a1,s0,-96
    802025ec:	f8b43423          	sd	a1,-120(s0)
    802025f0:	f8a43823          	sd	a0,-112(s0)

00000000802025f4 <.LBB17_59>:
    802025f4:	0000e517          	auipc	a0,0xe
    802025f8:	f4c50513          	addi	a0,a0,-180 # 80210540 <.Lanon.d703ab377f544c1c67a4f395927238a9.44>
    802025fc:	faa43423          	sd	a0,-88(s0)
    80202600:	450d                	li	a0,3
    80202602:	faa43823          	sd	a0,-80(s0)
    80202606:	fa043c23          	sd	zero,-72(s0)
    8020260a:	f7840513          	addi	a0,s0,-136
    8020260e:	fca43423          	sd	a0,-56(s0)
    80202612:	4509                	li	a0,2
    80202614:	fca43823          	sd	a0,-48(s0)

0000000080202618 <.LBB17_60>:
    80202618:	0000e597          	auipc	a1,0xe
    8020261c:	ff058593          	addi	a1,a1,-16 # 80210608 <.Lanon.d703ab377f544c1c67a4f395927238a9.64>
    80202620:	fa840513          	addi	a0,s0,-88
    80202624:	0000a097          	auipc	ra,0xa
    80202628:	4b6080e7          	jalr	1206(ra) # 8020cada <_ZN4core9panicking9panic_fmt17ha4e041b5d1f17023E>
	...

000000008020262e <.LBB17_61>:
    8020262e:	0000e517          	auipc	a0,0xe
    80202632:	65250513          	addi	a0,a0,1618 # 80210c80 <anon.3864ce854fd1093fe353f51790d6b615.1.llvm.4080457696073421243>

0000000080202636 <.LBB17_62>:
    80202636:	0000e697          	auipc	a3,0xe
    8020263a:	67a68693          	addi	a3,a3,1658 # 80210cb0 <anon.3864ce854fd1093fe353f51790d6b615.2.llvm.4080457696073421243>

000000008020263e <.LBB17_63>:
    8020263e:	0000e717          	auipc	a4,0xe
    80202642:	6c270713          	addi	a4,a4,1730 # 80210d00 <anon.3864ce854fd1093fe353f51790d6b615.8.llvm.4080457696073421243>
    80202646:	fa840613          	addi	a2,s0,-88
    8020264a:	02b00593          	li	a1,43
    8020264e:	0000a097          	auipc	ra,0xa
    80202652:	3c0080e7          	jalr	960(ra) # 8020ca0e <_ZN4core6option18expect_none_failed17hf4b8b266798017eaE>
	...

0000000080202658 <_ZN2os2mm10page_table9PageTable15find_pte_create17h4ab841306376e39aE>:
    80202658:	7131                	addi	sp,sp,-192
    8020265a:	fd06                	sd	ra,184(sp)
    8020265c:	f922                	sd	s0,176(sp)
    8020265e:	f526                	sd	s1,168(sp)
    80202660:	f14a                	sd	s2,160(sp)
    80202662:	ed4e                	sd	s3,152(sp)
    80202664:	e952                	sd	s4,144(sp)
    80202666:	e556                	sd	s5,136(sp)
    80202668:	e15a                	sd	s6,128(sp)
    8020266a:	fcde                	sd	s7,120(sp)
    8020266c:	f8e2                	sd	s8,112(sp)
    8020266e:	f4e6                	sd	s9,104(sp)
    80202670:	f0ea                	sd	s10,96(sp)
    80202672:	0180                	addi	s0,sp,192

0000000080202674 <.LBB6_16>:
    80202674:	00225617          	auipc	a2,0x225
    80202678:	bb460613          	addi	a2,a2,-1100 # 80427228 <_ZN3log20MAX_LOG_LEVEL_FILTER17h509cbb1a0757769dE>
    8020267c:	6214                	ld	a3,0(a2)
    8020267e:	4715                	li	a4,5
    80202680:	892e                	mv	s2,a1
    80202682:	89aa                	mv	s3,a0
    80202684:	0ee6e363          	bltu	a3,a4,8020276a <.LBB6_23+0x16>
    80202688:	6208                	ld	a0,0(a2)
    8020268a:	4591                	li	a1,4

000000008020268c <.LBB6_17>:
    8020268c:	0000d497          	auipc	s1,0xd
    80202690:	88848493          	addi	s1,s1,-1912 # 8020ef14 <_ZN4core3fmt3num53_$LT$impl$u20$core..fmt..LowerHex$u20$for$u20$i64$GT$3fmt17he21e11f173f31e15E>
    80202694:	06a5f363          	bgeu	a1,a0,802026fa <.LBB6_20+0x18>
    80202698:	0009b503          	ld	a0,0(s3)
    8020269c:	55fd                	li	a1,-1
    8020269e:	15fe                	slli	a1,a1,0x3f
    802026a0:	00b56a33          	or	s4,a0,a1
    802026a4:	f9443c23          	sd	s4,-104(s0)
    802026a8:	f9840513          	addi	a0,s0,-104
    802026ac:	f4a43023          	sd	a0,-192(s0)
    802026b0:	f4943423          	sd	s1,-184(s0)

00000000802026b4 <.LBB6_18>:
    802026b4:	0000e517          	auipc	a0,0xe
    802026b8:	36c50513          	addi	a0,a0,876 # 80210a20 <anon.f2b1b5a509bdedcdd67207527f4f0965.33.llvm.1283535708719223612>
    802026bc:	f6a43423          	sd	a0,-152(s0)
    802026c0:	4505                	li	a0,1
    802026c2:	f6a43823          	sd	a0,-144(s0)

00000000802026c6 <.LBB6_19>:
    802026c6:	0000e597          	auipc	a1,0xe
    802026ca:	36a58593          	addi	a1,a1,874 # 80210a30 <anon.f2b1b5a509bdedcdd67207527f4f0965.34.llvm.1283535708719223612>
    802026ce:	f6b43c23          	sd	a1,-136(s0)
    802026d2:	f8a43023          	sd	a0,-128(s0)
    802026d6:	f4040593          	addi	a1,s0,-192
    802026da:	f8b43423          	sd	a1,-120(s0)
    802026de:	f8a43823          	sd	a0,-112(s0)

00000000802026e2 <.LBB6_20>:
    802026e2:	0000e617          	auipc	a2,0xe
    802026e6:	38660613          	addi	a2,a2,902 # 80210a68 <anon.f2b1b5a509bdedcdd67207527f4f0965.35.llvm.1283535708719223612>
    802026ea:	f6840513          	addi	a0,s0,-152
    802026ee:	4595                	li	a1,5
    802026f0:	0000a097          	auipc	ra,0xa
    802026f4:	120080e7          	jalr	288(ra) # 8020c810 <_ZN3log17__private_api_log17hba2caac2d4fb19bcE>
    802026f8:	a039                	j	80202706 <.LBB6_20+0x24>
    802026fa:	0009b503          	ld	a0,0(s3)
    802026fe:	55fd                	li	a1,-1
    80202700:	15fe                	slli	a1,a1,0x3f
    80202702:	00b56a33          	or	s4,a0,a1
    80202706:	f7443023          	sd	s4,-160(s0)
    8020270a:	f9243c23          	sd	s2,-104(s0)
    8020270e:	f6040513          	addi	a0,s0,-160
    80202712:	f4a43023          	sd	a0,-192(s0)
    80202716:	f4943423          	sd	s1,-184(s0)
    8020271a:	f9840513          	addi	a0,s0,-104
    8020271e:	f4a43823          	sd	a0,-176(s0)
    80202722:	f4943c23          	sd	s1,-168(s0)

0000000080202726 <.LBB6_21>:
    80202726:	0000e517          	auipc	a0,0xe
    8020272a:	faa50513          	addi	a0,a0,-86 # 802106d0 <.Lanon.f2b1b5a509bdedcdd67207527f4f0965.5>
    8020272e:	f6a43423          	sd	a0,-152(s0)
    80202732:	4509                	li	a0,2
    80202734:	f6a43823          	sd	a0,-144(s0)

0000000080202738 <.LBB6_22>:
    80202738:	0000e597          	auipc	a1,0xe
    8020273c:	fb858593          	addi	a1,a1,-72 # 802106f0 <.Lanon.f2b1b5a509bdedcdd67207527f4f0965.6>
    80202740:	f6b43c23          	sd	a1,-136(s0)
    80202744:	f8a43023          	sd	a0,-128(s0)
    80202748:	f4040593          	addi	a1,s0,-192
    8020274c:	f8b43423          	sd	a1,-120(s0)
    80202750:	f8a43823          	sd	a0,-112(s0)

0000000080202754 <.LBB6_23>:
    80202754:	0000e617          	auipc	a2,0xe
    80202758:	02460613          	addi	a2,a2,36 # 80210778 <.Lanon.f2b1b5a509bdedcdd67207527f4f0965.8>
    8020275c:	f6840513          	addi	a0,s0,-152
    80202760:	4595                	li	a1,5
    80202762:	0000a097          	auipc	ra,0xa
    80202766:	0ae080e7          	jalr	174(ra) # 8020c810 <_ZN3log17__private_api_log17hba2caac2d4fb19bcE>
    8020276a:	1ff97513          	andi	a0,s2,511
    8020276e:	f6a43c23          	sd	a0,-136(s0)
    80202772:	00995513          	srli	a0,s2,0x9
    80202776:	1ff57513          	andi	a0,a0,511
    8020277a:	f6a43823          	sd	a0,-144(s0)
    8020277e:	01295513          	srli	a0,s2,0x12
    80202782:	1ff57513          	andi	a0,a0,511
    80202786:	f6a43423          	sd	a0,-152(s0)
    8020278a:	0009b583          	ld	a1,0(s3)
    8020278e:	00898913          	addi	s2,s3,8
    80202792:	4b21                	li	s6,8
    80202794:	02000a93          	li	s5,32
    80202798:	4605                	li	a2,1
    8020279a:	1632                	slli	a2,a2,0x2c
    8020279c:	fff60b93          	addi	s7,a2,-1
    802027a0:	f6840c13          	addi	s8,s0,-152
    802027a4:	20000c93          	li	s9,512
    802027a8:	a035                	j	802027d4 <.LBB6_23+0x80>
    802027aa:	0089b503          	ld	a0,8(s3)
    802027ae:	058e                	slli	a1,a1,0x3
    802027b0:	952e                	add	a0,a0,a1
    802027b2:	01453023          	sd	s4,0(a0)
    802027b6:	0189b503          	ld	a0,24(s3)
    802027ba:	0505                	addi	a0,a0,1
    802027bc:	00a9bc23          	sd	a0,24(s3)
    802027c0:	608c                	ld	a1,0(s1)
    802027c2:	016c0533          	add	a0,s8,s6
    802027c6:	6108                	ld	a0,0(a0)
    802027c8:	81a9                	srli	a1,a1,0xa
    802027ca:	0175f5b3          	and	a1,a1,s7
    802027ce:	8b6a                	mv	s6,s10
    802027d0:	07957763          	bgeu	a0,s9,8020283e <.LBB6_24>
    802027d4:	05b2                	slli	a1,a1,0xc
    802027d6:	050e                	slli	a0,a0,0x3
    802027d8:	008b0d13          	addi	s10,s6,8
    802027dc:	00a584b3          	add	s1,a1,a0
    802027e0:	055d0063          	beq	s10,s5,80202820 <.LBB6_23+0xcc>
    802027e4:	608c                	ld	a1,0(s1)
    802027e6:	0015f513          	andi	a0,a1,1
    802027ea:	fd61                	bnez	a0,802027c2 <.LBB6_23+0x6e>
    802027ec:	00002097          	auipc	ra,0x2
    802027f0:	2a8080e7          	jalr	680(ra) # 80204a94 <_ZN2os2mm15frame_allocator11frame_alloc17ha7fa5a63181a930bE>
    802027f4:	c125                	beqz	a0,80202854 <.LBB6_25>
    802027f6:	8a2e                	mv	s4,a1
    802027f8:	00a59513          	slli	a0,a1,0xa
    802027fc:	00156513          	ori	a0,a0,1
    80202800:	e088                	sd	a0,0(s1)
    80202802:	0189b583          	ld	a1,24(s3)
    80202806:	0109b503          	ld	a0,16(s3)
    8020280a:	faa590e3          	bne	a1,a0,802027aa <.LBB6_23+0x56>
    8020280e:	4605                	li	a2,1
    80202810:	854a                	mv	a0,s2
    80202812:	00001097          	auipc	ra,0x1
    80202816:	67e080e7          	jalr	1662(ra) # 80203e90 <_ZN5alloc7raw_vec19RawVec$LT$T$C$A$GT$7reserve17h60f035b4ed2cf83dE>
    8020281a:	0189b583          	ld	a1,24(s3)
    8020281e:	b771                	j	802027aa <.LBB6_23+0x56>
    80202820:	8526                	mv	a0,s1
    80202822:	7d06                	ld	s10,96(sp)
    80202824:	7ca6                	ld	s9,104(sp)
    80202826:	7c46                	ld	s8,112(sp)
    80202828:	7be6                	ld	s7,120(sp)
    8020282a:	6b0a                	ld	s6,128(sp)
    8020282c:	6aaa                	ld	s5,136(sp)
    8020282e:	6a4a                	ld	s4,144(sp)
    80202830:	69ea                	ld	s3,152(sp)
    80202832:	790a                	ld	s2,160(sp)
    80202834:	74aa                	ld	s1,168(sp)
    80202836:	744a                	ld	s0,176(sp)
    80202838:	70ea                	ld	ra,184(sp)
    8020283a:	6129                	addi	sp,sp,192
    8020283c:	8082                	ret

000000008020283e <.LBB6_24>:
    8020283e:	0000e617          	auipc	a2,0xe
    80202842:	f7260613          	addi	a2,a2,-142 # 802107b0 <.Lanon.f2b1b5a509bdedcdd67207527f4f0965.10>
    80202846:	20000593          	li	a1,512
    8020284a:	0000a097          	auipc	ra,0xa
    8020284e:	250080e7          	jalr	592(ra) # 8020ca9a <_ZN4core9panicking18panic_bounds_check17ha760e6d8204f3836E>
	...

0000000080202854 <.LBB6_25>:
    80202854:	0000e517          	auipc	a0,0xe
    80202858:	df450513          	addi	a0,a0,-524 # 80210648 <anon.f2b1b5a509bdedcdd67207527f4f0965.0.llvm.1283535708719223612>

000000008020285c <.LBB6_26>:
    8020285c:	0000e617          	auipc	a2,0xe
    80202860:	f6c60613          	addi	a2,a2,-148 # 802107c8 <.Lanon.f2b1b5a509bdedcdd67207527f4f0965.11>
    80202864:	02b00593          	li	a1,43
    80202868:	0000a097          	auipc	ra,0xa
    8020286c:	206080e7          	jalr	518(ra) # 8020ca6e <_ZN4core9panicking5panic17h4214b4eed8d3f37fE>
	...

0000000080202872 <_ZN2os2mm10page_table9PageTable3map17h2562fa28cb2e5ceeE>:
    80202872:	7131                	addi	sp,sp,-192
    80202874:	fd06                	sd	ra,184(sp)
    80202876:	f922                	sd	s0,176(sp)
    80202878:	f526                	sd	s1,168(sp)
    8020287a:	f14a                	sd	s2,160(sp)
    8020287c:	ed4e                	sd	s3,152(sp)
    8020287e:	e952                	sd	s4,144(sp)
    80202880:	e556                	sd	s5,136(sp)
    80202882:	0180                	addi	s0,sp,192
    80202884:	f4b43423          	sd	a1,-184(s0)

0000000080202888 <.LBB8_10>:
    80202888:	00225717          	auipc	a4,0x225
    8020288c:	9a070713          	addi	a4,a4,-1632 # 80427228 <_ZN3log20MAX_LOG_LEVEL_FILTER17h509cbb1a0757769dE>
    80202890:	631c                	ld	a5,0(a4)
    80202892:	4495                	li	s1,5
    80202894:	8936                	mv	s2,a3
    80202896:	89b2                	mv	s3,a2
    80202898:	8a2a                	mv	s4,a0
    8020289a:	0e97ed63          	bltu	a5,s1,80202994 <.LBB8_17+0x1a>
    8020289e:	6310                	ld	a2,0(a4)
    802028a0:	557d                	li	a0,-1
    802028a2:	157e                	slli	a0,a0,0x3f
    802028a4:	4691                	li	a3,4

00000000802028a6 <.LBB8_11>:
    802028a6:	0000c497          	auipc	s1,0xc
    802028aa:	66e48493          	addi	s1,s1,1646 # 8020ef14 <_ZN4core3fmt3num53_$LT$impl$u20$core..fmt..LowerHex$u20$for$u20$i64$GT$3fmt17he21e11f173f31e15E>
    802028ae:	06c6f363          	bgeu	a3,a2,80202914 <.LBB8_14+0x1c>
    802028b2:	000a3583          	ld	a1,0(s4)
    802028b6:	00a5eab3          	or	s5,a1,a0
    802028ba:	fd543023          	sd	s5,-64(s0)
    802028be:	fc040513          	addi	a0,s0,-64
    802028c2:	f4a43823          	sd	a0,-176(s0)
    802028c6:	f4943c23          	sd	s1,-168(s0)

00000000802028ca <.LBB8_12>:
    802028ca:	0000e517          	auipc	a0,0xe
    802028ce:	15650513          	addi	a0,a0,342 # 80210a20 <anon.f2b1b5a509bdedcdd67207527f4f0965.33.llvm.1283535708719223612>
    802028d2:	f8a43823          	sd	a0,-112(s0)
    802028d6:	4505                	li	a0,1
    802028d8:	f8a43c23          	sd	a0,-104(s0)

00000000802028dc <.LBB8_13>:
    802028dc:	0000e597          	auipc	a1,0xe
    802028e0:	15458593          	addi	a1,a1,340 # 80210a30 <anon.f2b1b5a509bdedcdd67207527f4f0965.34.llvm.1283535708719223612>
    802028e4:	fab43023          	sd	a1,-96(s0)
    802028e8:	faa43423          	sd	a0,-88(s0)
    802028ec:	f5040593          	addi	a1,s0,-176
    802028f0:	fab43823          	sd	a1,-80(s0)
    802028f4:	faa43c23          	sd	a0,-72(s0)

00000000802028f8 <.LBB8_14>:
    802028f8:	0000e617          	auipc	a2,0xe
    802028fc:	17060613          	addi	a2,a2,368 # 80210a68 <anon.f2b1b5a509bdedcdd67207527f4f0965.35.llvm.1283535708719223612>
    80202900:	f9040513          	addi	a0,s0,-112
    80202904:	4595                	li	a1,5
    80202906:	0000a097          	auipc	ra,0xa
    8020290a:	f0a080e7          	jalr	-246(ra) # 8020c810 <_ZN3log17__private_api_log17hba2caac2d4fb19bcE>
    8020290e:	f4843583          	ld	a1,-184(s0)
    80202912:	a029                	j	8020291c <.LBB8_14+0x24>
    80202914:	000a3603          	ld	a2,0(s4)
    80202918:	00a66ab3          	or	s5,a2,a0
    8020291c:	f9543023          	sd	s5,-128(s0)
    80202920:	f8b43423          	sd	a1,-120(s0)
    80202924:	fd343023          	sd	s3,-64(s0)
    80202928:	f8040513          	addi	a0,s0,-128
    8020292c:	f8a43823          	sd	a0,-112(s0)
    80202930:	f8943c23          	sd	s1,-104(s0)
    80202934:	f8840513          	addi	a0,s0,-120
    80202938:	faa43023          	sd	a0,-96(s0)
    8020293c:	fa943423          	sd	s1,-88(s0)
    80202940:	fc040513          	addi	a0,s0,-64
    80202944:	faa43823          	sd	a0,-80(s0)
    80202948:	fa943c23          	sd	s1,-72(s0)

000000008020294c <.LBB8_15>:
    8020294c:	0000e517          	auipc	a0,0xe
    80202950:	ee450513          	addi	a0,a0,-284 # 80210830 <.Lanon.f2b1b5a509bdedcdd67207527f4f0965.17>
    80202954:	f4a43823          	sd	a0,-176(s0)
    80202958:	450d                	li	a0,3
    8020295a:	f4a43c23          	sd	a0,-168(s0)

000000008020295e <.LBB8_16>:
    8020295e:	0000e597          	auipc	a1,0xe
    80202962:	f0258593          	addi	a1,a1,-254 # 80210860 <.Lanon.f2b1b5a509bdedcdd67207527f4f0965.18>
    80202966:	f6b43023          	sd	a1,-160(s0)
    8020296a:	f6a43423          	sd	a0,-152(s0)
    8020296e:	f9040593          	addi	a1,s0,-112
    80202972:	f6b43823          	sd	a1,-144(s0)
    80202976:	f6a43c23          	sd	a0,-136(s0)

000000008020297a <.LBB8_17>:
    8020297a:	0000e617          	auipc	a2,0xe
    8020297e:	f8e60613          	addi	a2,a2,-114 # 80210908 <.Lanon.f2b1b5a509bdedcdd67207527f4f0965.19>
    80202982:	f5040513          	addi	a0,s0,-176
    80202986:	4595                	li	a1,5
    80202988:	0000a097          	auipc	ra,0xa
    8020298c:	e88080e7          	jalr	-376(ra) # 8020c810 <_ZN3log17__private_api_log17hba2caac2d4fb19bcE>
    80202990:	f4843583          	ld	a1,-184(s0)
    80202994:	8552                	mv	a0,s4
    80202996:	00000097          	auipc	ra,0x0
    8020299a:	cc2080e7          	jalr	-830(ra) # 80202658 <_ZN2os2mm10page_table9PageTable15find_pte_create17h4ab841306376e39aE>
    8020299e:	c905                	beqz	a0,802029ce <.LBB8_18>
    802029a0:	85aa                	mv	a1,a0
    802029a2:	00054503          	lbu	a0,0(a0)
    802029a6:	8905                	andi	a0,a0,1
    802029a8:	e131                	bnez	a0,802029ec <.LBB8_19+0x16>
    802029aa:	00196513          	ori	a0,s2,1
    802029ae:	00a99613          	slli	a2,s3,0xa
    802029b2:	0ff57513          	andi	a0,a0,255
    802029b6:	8e49                	or	a2,a2,a0
    802029b8:	4505                	li	a0,1
    802029ba:	e190                	sd	a2,0(a1)
    802029bc:	6aaa                	ld	s5,136(sp)
    802029be:	6a4a                	ld	s4,144(sp)
    802029c0:	69ea                	ld	s3,152(sp)
    802029c2:	790a                	ld	s2,160(sp)
    802029c4:	74aa                	ld	s1,168(sp)
    802029c6:	744a                	ld	s0,176(sp)
    802029c8:	70ea                	ld	ra,184(sp)
    802029ca:	6129                	addi	sp,sp,192
    802029cc:	8082                	ret

00000000802029ce <.LBB8_18>:
    802029ce:	0000e517          	auipc	a0,0xe
    802029d2:	c7a50513          	addi	a0,a0,-902 # 80210648 <anon.f2b1b5a509bdedcdd67207527f4f0965.0.llvm.1283535708719223612>

00000000802029d6 <.LBB8_19>:
    802029d6:	0000e617          	auipc	a2,0xe
    802029da:	f6a60613          	addi	a2,a2,-150 # 80210940 <.Lanon.f2b1b5a509bdedcdd67207527f4f0965.20>
    802029de:	02b00593          	li	a1,43
    802029e2:	0000a097          	auipc	ra,0xa
    802029e6:	08c080e7          	jalr	140(ra) # 8020ca6e <_ZN4core9panicking5panic17h4214b4eed8d3f37fE>
    802029ea:	0000                	unimp
    802029ec:	f4840513          	addi	a0,s0,-184
    802029f0:	f4a43823          	sd	a0,-176(s0)

00000000802029f4 <.LBB8_20>:
    802029f4:	00001517          	auipc	a0,0x1
    802029f8:	b9c50513          	addi	a0,a0,-1124 # 80203590 <_ZN65_$LT$os..mm..address..VirtPageNum$u20$as$u20$core..fmt..Debug$GT$3fmt17haac55a57cbe0682cE>
    802029fc:	f4a43c23          	sd	a0,-168(s0)

0000000080202a00 <.LBB8_21>:
    80202a00:	0000e517          	auipc	a0,0xe
    80202a04:	fc850513          	addi	a0,a0,-56 # 802109c8 <.Lanon.f2b1b5a509bdedcdd67207527f4f0965.23>
    80202a08:	f8a43823          	sd	a0,-112(s0)
    80202a0c:	4509                	li	a0,2
    80202a0e:	f8a43c23          	sd	a0,-104(s0)
    80202a12:	fa043023          	sd	zero,-96(s0)
    80202a16:	f5040513          	addi	a0,s0,-176
    80202a1a:	faa43823          	sd	a0,-80(s0)
    80202a1e:	4505                	li	a0,1
    80202a20:	faa43c23          	sd	a0,-72(s0)

0000000080202a24 <.LBB8_22>:
    80202a24:	0000e597          	auipc	a1,0xe
    80202a28:	fc458593          	addi	a1,a1,-60 # 802109e8 <.Lanon.f2b1b5a509bdedcdd67207527f4f0965.24>
    80202a2c:	f9040513          	addi	a0,s0,-112
    80202a30:	0000a097          	auipc	ra,0xa
    80202a34:	0aa080e7          	jalr	170(ra) # 8020cada <_ZN4core9panicking9panic_fmt17ha4e041b5d1f17023E>
	...

0000000080202a3a <_ZN5riscv8register6scause6Scause5cause17hef8ad4cff6534967E>:
    80202a3a:	1101                	addi	sp,sp,-32
    80202a3c:	ec06                	sd	ra,24(sp)
    80202a3e:	e822                	sd	s0,16(sp)
    80202a40:	e426                	sd	s1,8(sp)
    80202a42:	1000                	addi	s0,sp,32
    80202a44:	6104                	ld	s1,0(a0)
    80202a46:	0000a097          	auipc	ra,0xa
    80202a4a:	9c2080e7          	jalr	-1598(ra) # 8020c408 <_ZN5riscv8register6scause6Scause4code17h35ab447f086279feE>
    80202a4e:	55fd                	li	a1,-1
    80202a50:	0095da63          	bge	a1,s1,80202a64 <_ZN5riscv8register6scause6Scause5cause17hef8ad4cff6534967E+0x2a>
    80202a54:	0000a097          	auipc	ra,0xa
    80202a58:	8c4080e7          	jalr	-1852(ra) # 8020c318 <_ZN5riscv8register6scause9Exception4from17h423fdcbf4ffe9f4eE>
    80202a5c:	0ff57593          	andi	a1,a0,255
    80202a60:	4505                	li	a0,1
    80202a62:	a809                	j	80202a74 <_ZN5riscv8register6scause6Scause5cause17hef8ad4cff6534967E+0x3a>
    80202a64:	0000a097          	auipc	ra,0xa
    80202a68:	846080e7          	jalr	-1978(ra) # 8020c2aa <_ZN5riscv8register6scause9Interrupt4from17he774f4cc3e978741E>
    80202a6c:	85aa                	mv	a1,a0
    80202a6e:	4501                	li	a0,0
    80202a70:	0ff5f593          	andi	a1,a1,255
    80202a74:	64a2                	ld	s1,8(sp)
    80202a76:	6442                	ld	s0,16(sp)
    80202a78:	60e2                	ld	ra,24(sp)
    80202a7a:	6105                	addi	sp,sp,32
    80202a7c:	8082                	ret

0000000080202a7e <_ZN60_$LT$alloc..string..String$u20$as$u20$core..fmt..Display$GT$3fmt17hbef6182cdf2d6a36E>:
    80202a7e:	1141                	addi	sp,sp,-16
    80202a80:	e406                	sd	ra,8(sp)
    80202a82:	e022                	sd	s0,0(sp)
    80202a84:	0800                	addi	s0,sp,16
    80202a86:	6110                	ld	a2,0(a0)
    80202a88:	6914                	ld	a3,16(a0)
    80202a8a:	872e                	mv	a4,a1
    80202a8c:	8532                	mv	a0,a2
    80202a8e:	85b6                	mv	a1,a3
    80202a90:	863a                	mv	a2,a4
    80202a92:	6402                	ld	s0,0(sp)
    80202a94:	60a2                	ld	ra,8(sp)
    80202a96:	0141                	addi	sp,sp,16
    80202a98:	0000b317          	auipc	t1,0xb
    80202a9c:	4b230067          	jr	1202(t1) # 8020df4a <_ZN42_$LT$str$u20$as$u20$core..fmt..Display$GT$3fmt17h669958e415ffd666E>

0000000080202aa0 <_ZN2os4trap4init17h7d466adadc835482E>:
    80202aa0:	1141                	addi	sp,sp,-16
    80202aa2:	e406                	sd	ra,8(sp)
    80202aa4:	e022                	sd	s0,0(sp)
    80202aa6:	0800                	addi	s0,sp,16

0000000080202aa8 <.LBB20_1>:
    80202aa8:	00000517          	auipc	a0,0x0
    80202aac:	02c50513          	addi	a0,a0,44 # 80202ad4 <trap_from_kernel>
    80202ab0:	10551073          	csrw	stvec,a0
    80202ab4:	6402                	ld	s0,0(sp)
    80202ab6:	60a2                	ld	ra,8(sp)
    80202ab8:	0141                	addi	sp,sp,16
    80202aba:	8082                	ret

0000000080202abc <_ZN2os4trap22enable_timer_interrupt17hacfa0da64a1fde38E>:
    80202abc:	1141                	addi	sp,sp,-16
    80202abe:	e406                	sd	ra,8(sp)
    80202ac0:	e022                	sd	s0,0(sp)
    80202ac2:	0800                	addi	s0,sp,16
    80202ac4:	02000513          	li	a0,32
    80202ac8:	10452073          	csrs	sie,a0
    80202acc:	6402                	ld	s0,0(sp)
    80202ace:	60a2                	ld	ra,8(sp)
    80202ad0:	0141                	addi	sp,sp,16
    80202ad2:	8082                	ret

0000000080202ad4 <trap_from_kernel>:
    80202ad4:	7119                	addi	sp,sp,-128
    80202ad6:	fc86                	sd	ra,120(sp)
    80202ad8:	f8a2                	sd	s0,112(sp)
    80202ada:	0100                	addi	s0,sp,128
    80202adc:	14202573          	csrr	a0,scause
    80202ae0:	fea43023          	sd	a0,-32(s0)
    80202ae4:	fe040513          	addi	a0,s0,-32
    80202ae8:	00000097          	auipc	ra,0x0
    80202aec:	f52080e7          	jalr	-174(ra) # 80202a3a <_ZN5riscv8register6scause6Scause5cause17hef8ad4cff6534967E>
    80202af0:	fca40c23          	sb	a0,-40(s0)
    80202af4:	fcb40ca3          	sb	a1,-39(s0)
    80202af8:	14102573          	csrr	a0,sepc
    80202afc:	fea43423          	sd	a0,-24(s0)
    80202b00:	fd840513          	addi	a0,s0,-40
    80202b04:	faa43c23          	sd	a0,-72(s0)

0000000080202b08 <.LBB24_1>:
    80202b08:	0000a517          	auipc	a0,0xa
    80202b0c:	91a50513          	addi	a0,a0,-1766 # 8020c422 <_ZN66_$LT$riscv..register..scause..Trap$u20$as$u20$core..fmt..Debug$GT$3fmt17h5debf91c28ede675E>
    80202b10:	fca43023          	sd	a0,-64(s0)
    80202b14:	fe840513          	addi	a0,s0,-24
    80202b18:	fca43423          	sd	a0,-56(s0)

0000000080202b1c <.LBB24_2>:
    80202b1c:	0000c517          	auipc	a0,0xc
    80202b20:	3f850513          	addi	a0,a0,1016 # 8020ef14 <_ZN4core3fmt3num53_$LT$impl$u20$core..fmt..LowerHex$u20$for$u20$i64$GT$3fmt17he21e11f173f31e15E>
    80202b24:	fca43823          	sd	a0,-48(s0)

0000000080202b28 <.LBB24_3>:
    80202b28:	0000e517          	auipc	a0,0xe
    80202b2c:	01850513          	addi	a0,a0,24 # 80210b40 <.Lanon.d0d9e2e7a51c63dbefebd3f5bef00535.25>
    80202b30:	f8a43423          	sd	a0,-120(s0)
    80202b34:	4509                	li	a0,2
    80202b36:	f8a43823          	sd	a0,-112(s0)

0000000080202b3a <.LBB24_4>:
    80202b3a:	0000e597          	auipc	a1,0xe
    80202b3e:	f6658593          	addi	a1,a1,-154 # 80210aa0 <.Lanon.d0d9e2e7a51c63dbefebd3f5bef00535.18>
    80202b42:	f8b43c23          	sd	a1,-104(s0)
    80202b46:	faa43023          	sd	a0,-96(s0)
    80202b4a:	fb840593          	addi	a1,s0,-72
    80202b4e:	fab43423          	sd	a1,-88(s0)
    80202b52:	faa43823          	sd	a0,-80(s0)

0000000080202b56 <.LBB24_5>:
    80202b56:	0000e597          	auipc	a1,0xe
    80202b5a:	00a58593          	addi	a1,a1,10 # 80210b60 <.Lanon.d0d9e2e7a51c63dbefebd3f5bef00535.26>
    80202b5e:	f8840513          	addi	a0,s0,-120
    80202b62:	0000a097          	auipc	ra,0xa
    80202b66:	f78080e7          	jalr	-136(ra) # 8020cada <_ZN4core9panicking9panic_fmt17ha4e041b5d1f17023E>
	...

0000000080202b6c <_ZN2os2fs5inode9list_apps17h04ca514f3a8357a7E>:
    80202b6c:	7151                	addi	sp,sp,-240
    80202b6e:	f586                	sd	ra,232(sp)
    80202b70:	f1a2                	sd	s0,224(sp)
    80202b72:	eda6                	sd	s1,216(sp)
    80202b74:	e9ca                	sd	s2,208(sp)
    80202b76:	e5ce                	sd	s3,200(sp)
    80202b78:	e1d2                	sd	s4,192(sp)
    80202b7a:	fd56                	sd	s5,184(sp)
    80202b7c:	f95a                	sd	s6,176(sp)
    80202b7e:	f55e                	sd	s7,168(sp)
    80202b80:	f162                	sd	s8,160(sp)
    80202b82:	ed66                	sd	s9,152(sp)
    80202b84:	e96a                	sd	s10,144(sp)
    80202b86:	e56e                	sd	s11,136(sp)
    80202b88:	1980                	addi	s0,sp,240
    80202b8a:	f6840513          	addi	a0,s0,-152
    80202b8e:	f2a43c23          	sd	a0,-200(s0)

0000000080202b92 <.LBB26_20>:
    80202b92:	0000e517          	auipc	a0,0xe
    80202b96:	07650513          	addi	a0,a0,118 # 80210c08 <.Lanon.d0d9e2e7a51c63dbefebd3f5bef00535.30>
    80202b9a:	f6a43423          	sd	a0,-152(s0)
    80202b9e:	4505                	li	a0,1
    80202ba0:	f6a43823          	sd	a0,-144(s0)
    80202ba4:	f6043c23          	sd	zero,-136(s0)

0000000080202ba8 <.LBB26_21>:
    80202ba8:	0000e997          	auipc	s3,0xe
    80202bac:	ef898993          	addi	s3,s3,-264 # 80210aa0 <.Lanon.d0d9e2e7a51c63dbefebd3f5bef00535.18>
    80202bb0:	f9343423          	sd	s3,-120(s0)
    80202bb4:	f8043823          	sd	zero,-112(s0)

0000000080202bb8 <.LBB26_22>:
    80202bb8:	0000e597          	auipc	a1,0xe
    80202bbc:	09858593          	addi	a1,a1,152 # 80210c50 <anon.3864ce854fd1093fe353f51790d6b615.0.llvm.4080457696073421243>
    80202bc0:	f3840513          	addi	a0,s0,-200
    80202bc4:	f6840613          	addi	a2,s0,-152
    80202bc8:	0000a097          	auipc	ra,0xa
    80202bcc:	722080e7          	jalr	1826(ra) # 8020d2ea <_ZN4core3fmt5write17h338141860f5a80fbE>
    80202bd0:	1a051b63          	bnez	a0,80202d86 <.LBB26_29>

0000000080202bd4 <.LBB26_23>:
    80202bd4:	00024517          	auipc	a0,0x24
    80202bd8:	43c50513          	addi	a0,a0,1084 # 80227010 <_ZN69_$LT$os..fs..inode..ROOT_INODE$u20$as$u20$core..ops..deref..Deref$GT$5deref11__stability4LAZY17h632b70ba82e54305E.llvm.15921505240027061571>
    80202bdc:	00002097          	auipc	ra,0x2
    80202be0:	9d2080e7          	jalr	-1582(ra) # 802045ae <_ZN4spin4once13Once$LT$T$GT$9call_once17hb9802600f3afdf8fE>
    80202be4:	6108                	ld	a0,0(a0)
    80202be6:	01050593          	addi	a1,a0,16
    80202bea:	f6840a13          	addi	s4,s0,-152
    80202bee:	8552                	mv	a0,s4
    80202bf0:	00007097          	auipc	ra,0x7
    80202bf4:	78e080e7          	jalr	1934(ra) # 8020a37e <_ZN7easy_fs3vfs5Inode2ls17h84dbb4f060aaca1eE>
    80202bf8:	f7843503          	ld	a0,-136(s0)
    80202bfc:	f6843a83          	ld	s5,-152(s0)
    80202c00:	f7043b03          	ld	s6,-144(s0)
    80202c04:	45e1                	li	a1,24
    80202c06:	02b505b3          	mul	a1,a0,a1
    80202c0a:	00ba8cb3          	add	s9,s5,a1
    80202c0e:	84d6                	mv	s1,s5
    80202c10:	c979                	beqz	a0,80202ce6 <.LBB26_26+0xa6>
    80202c12:	f1643823          	sd	s6,-240(s0)
    80202c16:	f3343023          	sd	s3,-224(s0)
    80202c1a:	f3840513          	addi	a0,s0,-200
    80202c1e:	00850d13          	addi	s10,a0,8
    80202c22:	f1543c23          	sd	s5,-232(s0)
    80202c26:	018a8493          	addi	s1,s5,24

0000000080202c2a <.LBB26_24>:
    80202c2a:	00000d97          	auipc	s11,0x0
    80202c2e:	e54d8d93          	addi	s11,s11,-428 # 80202a7e <_ZN60_$LT$alloc..string..String$u20$as$u20$core..fmt..Display$GT$3fmt17hbef6182cdf2d6a36E>

0000000080202c32 <.LBB26_25>:
    80202c32:	0000eb17          	auipc	s6,0xe
    80202c36:	feeb0b13          	addi	s6,s6,-18 # 80210c20 <.Lanon.d0d9e2e7a51c63dbefebd3f5bef00535.32>
    80202c3a:	f5040913          	addi	s2,s0,-176
    80202c3e:	4985                	li	s3,1

0000000080202c40 <.LBB26_26>:
    80202c40:	0000ec17          	auipc	s8,0xe
    80202c44:	010c0c13          	addi	s8,s8,16 # 80210c50 <anon.3864ce854fd1093fe353f51790d6b615.0.llvm.4080457696073421243>
    80202c48:	f6040a93          	addi	s5,s0,-160
    80202c4c:	a031                	j	80202c58 <.LBB26_26+0x18>
    80202c4e:	018b8513          	addi	a0,s7,24
    80202c52:	04e1                	addi	s1,s1,24
    80202c54:	0b950a63          	beq	a0,s9,80202d08 <.LBB26_26+0xc8>
    80202c58:	ff84b583          	ld	a1,-8(s1)
    80202c5c:	fe84b503          	ld	a0,-24(s1)
    80202c60:	f6b43823          	sd	a1,-144(s0)
    80202c64:	ff04b583          	ld	a1,-16(s1)
    80202c68:	f6b43423          	sd	a1,-152(s0)
    80202c6c:	c53d                	beqz	a0,80202cda <.LBB26_26+0x9a>
    80202c6e:	f7043583          	ld	a1,-144(s0)
    80202c72:	f6843603          	ld	a2,-152(s0)
    80202c76:	f2b43823          	sd	a1,-208(s0)
    80202c7a:	f2c43423          	sd	a2,-216(s0)
    80202c7e:	f2a43c23          	sd	a0,-200(s0)
    80202c82:	00bd3423          	sd	a1,8(s10)
    80202c86:	00cd3023          	sd	a2,0(s10)
    80202c8a:	f3840513          	addi	a0,s0,-200
    80202c8e:	f4a43823          	sd	a0,-176(s0)
    80202c92:	f5b43c23          	sd	s11,-168(s0)
    80202c96:	f7443023          	sd	s4,-160(s0)
    80202c9a:	f7643423          	sd	s6,-152(s0)
    80202c9e:	4509                	li	a0,2
    80202ca0:	f6a43823          	sd	a0,-144(s0)
    80202ca4:	f6043c23          	sd	zero,-136(s0)
    80202ca8:	f9243423          	sd	s2,-120(s0)
    80202cac:	f9343823          	sd	s3,-112(s0)
    80202cb0:	8556                	mv	a0,s5
    80202cb2:	85e2                	mv	a1,s8
    80202cb4:	8652                	mv	a2,s4
    80202cb6:	0000a097          	auipc	ra,0xa
    80202cba:	634080e7          	jalr	1588(ra) # 8020d2ea <_ZN4core3fmt5write17h338141860f5a80fbE>
    80202cbe:	e561                	bnez	a0,80202d86 <.LBB26_29>
    80202cc0:	f4043583          	ld	a1,-192(s0)
    80202cc4:	fe848b93          	addi	s7,s1,-24
    80202cc8:	d1d9                	beqz	a1,80202c4e <.LBB26_26+0xe>
    80202cca:	f3843503          	ld	a0,-200(s0)
    80202cce:	4605                	li	a2,1
    80202cd0:	00003097          	auipc	ra,0x3
    80202cd4:	b7e080e7          	jalr	-1154(ra) # 8020584e <__rust_dealloc>
    80202cd8:	bf9d                	j	80202c4e <.LBB26_26+0xe>
    80202cda:	f2043983          	ld	s3,-224(s0)
    80202cde:	f1843a83          	ld	s5,-232(s0)
    80202ce2:	f1043b03          	ld	s6,-240(s0)
    80202ce6:	009c9663          	bne	s9,s1,80202cf2 <.LBB26_26+0xb2>
    80202cea:	a02d                	j	80202d14 <.LBB26_26+0xd4>
    80202cec:	84ca                	mv	s1,s2
    80202cee:	032c8363          	beq	s9,s2,80202d14 <.LBB26_26+0xd4>
    80202cf2:	648c                	ld	a1,8(s1)
    80202cf4:	01848913          	addi	s2,s1,24
    80202cf8:	d9f5                	beqz	a1,80202cec <.LBB26_26+0xac>
    80202cfa:	6088                	ld	a0,0(s1)
    80202cfc:	4605                	li	a2,1
    80202cfe:	00003097          	auipc	ra,0x3
    80202d02:	b50080e7          	jalr	-1200(ra) # 8020584e <__rust_dealloc>
    80202d06:	b7dd                	j	80202cec <.LBB26_26+0xac>
    80202d08:	f2043983          	ld	s3,-224(s0)
    80202d0c:	f1843a83          	ld	s5,-232(s0)
    80202d10:	f1043b03          	ld	s6,-240(s0)
    80202d14:	000b0c63          	beqz	s6,80202d2c <.LBB26_26+0xec>
    80202d18:	4561                	li	a0,24
    80202d1a:	02ab05b3          	mul	a1,s6,a0
    80202d1e:	c599                	beqz	a1,80202d2c <.LBB26_26+0xec>
    80202d20:	4621                	li	a2,8
    80202d22:	8556                	mv	a0,s5
    80202d24:	00003097          	auipc	ra,0x3
    80202d28:	b2a080e7          	jalr	-1238(ra) # 8020584e <__rust_dealloc>
    80202d2c:	f3443c23          	sd	s4,-200(s0)

0000000080202d30 <.LBB26_27>:
    80202d30:	0000e517          	auipc	a0,0xe
    80202d34:	f1050513          	addi	a0,a0,-240 # 80210c40 <.Lanon.d0d9e2e7a51c63dbefebd3f5bef00535.34>
    80202d38:	f6a43423          	sd	a0,-152(s0)
    80202d3c:	4505                	li	a0,1
    80202d3e:	f6a43823          	sd	a0,-144(s0)
    80202d42:	f6043c23          	sd	zero,-136(s0)
    80202d46:	f9343423          	sd	s3,-120(s0)
    80202d4a:	f8043823          	sd	zero,-112(s0)

0000000080202d4e <.LBB26_28>:
    80202d4e:	0000e597          	auipc	a1,0xe
    80202d52:	f0258593          	addi	a1,a1,-254 # 80210c50 <anon.3864ce854fd1093fe353f51790d6b615.0.llvm.4080457696073421243>
    80202d56:	f3840513          	addi	a0,s0,-200
    80202d5a:	f6840613          	addi	a2,s0,-152
    80202d5e:	0000a097          	auipc	ra,0xa
    80202d62:	58c080e7          	jalr	1420(ra) # 8020d2ea <_ZN4core3fmt5write17h338141860f5a80fbE>
    80202d66:	e105                	bnez	a0,80202d86 <.LBB26_29>
    80202d68:	6daa                	ld	s11,136(sp)
    80202d6a:	6d4a                	ld	s10,144(sp)
    80202d6c:	6cea                	ld	s9,152(sp)
    80202d6e:	7c0a                	ld	s8,160(sp)
    80202d70:	7baa                	ld	s7,168(sp)
    80202d72:	7b4a                	ld	s6,176(sp)
    80202d74:	7aea                	ld	s5,184(sp)
    80202d76:	6a0e                	ld	s4,192(sp)
    80202d78:	69ae                	ld	s3,200(sp)
    80202d7a:	694e                	ld	s2,208(sp)
    80202d7c:	64ee                	ld	s1,216(sp)
    80202d7e:	740e                	ld	s0,224(sp)
    80202d80:	70ae                	ld	ra,232(sp)
    80202d82:	616d                	addi	sp,sp,240
    80202d84:	8082                	ret

0000000080202d86 <.LBB26_29>:
    80202d86:	0000e517          	auipc	a0,0xe
    80202d8a:	efa50513          	addi	a0,a0,-262 # 80210c80 <anon.3864ce854fd1093fe353f51790d6b615.1.llvm.4080457696073421243>

0000000080202d8e <.LBB26_30>:
    80202d8e:	0000e697          	auipc	a3,0xe
    80202d92:	f2268693          	addi	a3,a3,-222 # 80210cb0 <anon.3864ce854fd1093fe353f51790d6b615.2.llvm.4080457696073421243>

0000000080202d96 <.LBB26_31>:
    80202d96:	0000e717          	auipc	a4,0xe
    80202d9a:	f6a70713          	addi	a4,a4,-150 # 80210d00 <anon.3864ce854fd1093fe353f51790d6b615.8.llvm.4080457696073421243>
    80202d9e:	f6840613          	addi	a2,s0,-152
    80202da2:	02b00593          	li	a1,43
    80202da6:	0000a097          	auipc	ra,0xa
    80202daa:	c68080e7          	jalr	-920(ra) # 8020ca0e <_ZN4core6option18expect_none_failed17hf4b8b266798017eaE>
	...

0000000080202db0 <_ZN4core3ptr37drop_in_place$LT$core..fmt..Error$GT$17h2d4edcacfac59e33E.llvm.4080457696073421243>:
    80202db0:	1141                	addi	sp,sp,-16
    80202db2:	e406                	sd	ra,8(sp)
    80202db4:	e022                	sd	s0,0(sp)
    80202db6:	0800                	addi	s0,sp,16
    80202db8:	6402                	ld	s0,0(sp)
    80202dba:	60a2                	ld	ra,8(sp)
    80202dbc:	0141                	addi	sp,sp,16
    80202dbe:	8082                	ret

0000000080202dc0 <_ZN50_$LT$$RF$mut$u20$W$u20$as$u20$core..fmt..Write$GT$10write_char17hd81dcdfa19ff1f24E.llvm.4080457696073421243>:
    80202dc0:	1101                	addi	sp,sp,-32
    80202dc2:	ec06                	sd	ra,24(sp)
    80202dc4:	e822                	sd	s0,16(sp)
    80202dc6:	1000                	addi	s0,sp,32
    80202dc8:	0005851b          	sext.w	a0,a1
    80202dcc:	08000613          	li	a2,128
    80202dd0:	fe042623          	sw	zero,-20(s0)
    80202dd4:	00c57663          	bgeu	a0,a2,80202de0 <_ZN50_$LT$$RF$mut$u20$W$u20$as$u20$core..fmt..Write$GT$10write_char17hd81dcdfa19ff1f24E.llvm.4080457696073421243+0x20>
    80202dd8:	feb40623          	sb	a1,-20(s0)
    80202ddc:	4585                	li	a1,1
    80202dde:	a841                	j	80202e6e <_ZN50_$LT$$RF$mut$u20$W$u20$as$u20$core..fmt..Write$GT$10write_char17hd81dcdfa19ff1f24E.llvm.4080457696073421243+0xae>
    80202de0:	00b5d51b          	srliw	a0,a1,0xb
    80202de4:	ed19                	bnez	a0,80202e02 <_ZN50_$LT$$RF$mut$u20$W$u20$as$u20$core..fmt..Write$GT$10write_char17hd81dcdfa19ff1f24E.llvm.4080457696073421243+0x42>
    80202de6:	0065d513          	srli	a0,a1,0x6
    80202dea:	0c056513          	ori	a0,a0,192
    80202dee:	fea40623          	sb	a0,-20(s0)
    80202df2:	03f5f513          	andi	a0,a1,63
    80202df6:	08056513          	ori	a0,a0,128
    80202dfa:	fea406a3          	sb	a0,-19(s0)
    80202dfe:	4589                	li	a1,2
    80202e00:	a0bd                	j	80202e6e <_ZN50_$LT$$RF$mut$u20$W$u20$as$u20$core..fmt..Write$GT$10write_char17hd81dcdfa19ff1f24E.llvm.4080457696073421243+0xae>
    80202e02:	0105d51b          	srliw	a0,a1,0x10
    80202e06:	e51d                	bnez	a0,80202e34 <_ZN50_$LT$$RF$mut$u20$W$u20$as$u20$core..fmt..Write$GT$10write_char17hd81dcdfa19ff1f24E.llvm.4080457696073421243+0x74>
    80202e08:	00c5d51b          	srliw	a0,a1,0xc
    80202e0c:	0e056513          	ori	a0,a0,224
    80202e10:	fea40623          	sb	a0,-20(s0)
    80202e14:	0065d51b          	srliw	a0,a1,0x6
    80202e18:	03f57513          	andi	a0,a0,63
    80202e1c:	08056513          	ori	a0,a0,128
    80202e20:	fea406a3          	sb	a0,-19(s0)
    80202e24:	03f5f513          	andi	a0,a1,63
    80202e28:	08056513          	ori	a0,a0,128
    80202e2c:	fea40723          	sb	a0,-18(s0)
    80202e30:	458d                	li	a1,3
    80202e32:	a835                	j	80202e6e <_ZN50_$LT$$RF$mut$u20$W$u20$as$u20$core..fmt..Write$GT$10write_char17hd81dcdfa19ff1f24E.llvm.4080457696073421243+0xae>
    80202e34:	0125d51b          	srliw	a0,a1,0x12
    80202e38:	0f056513          	ori	a0,a0,240
    80202e3c:	fea40623          	sb	a0,-20(s0)
    80202e40:	00c5d51b          	srliw	a0,a1,0xc
    80202e44:	03f57513          	andi	a0,a0,63
    80202e48:	08056513          	ori	a0,a0,128
    80202e4c:	fea406a3          	sb	a0,-19(s0)
    80202e50:	0065d51b          	srliw	a0,a1,0x6
    80202e54:	03f57513          	andi	a0,a0,63
    80202e58:	08056513          	ori	a0,a0,128
    80202e5c:	fea40723          	sb	a0,-18(s0)
    80202e60:	03f5f513          	andi	a0,a1,63
    80202e64:	08056513          	ori	a0,a0,128
    80202e68:	fea407a3          	sb	a0,-17(s0)
    80202e6c:	4591                	li	a1,4
    80202e6e:	fec40513          	addi	a0,s0,-20
    80202e72:	00000097          	auipc	ra,0x0
    80202e76:	082080e7          	jalr	130(ra) # 80202ef4 <_ZN56_$LT$os..logging..Stdout$u20$as$u20$core..fmt..Write$GT$9write_str17h6ceff79f579daa9cE>
    80202e7a:	4501                	li	a0,0
    80202e7c:	6442                	ld	s0,16(sp)
    80202e7e:	60e2                	ld	ra,24(sp)
    80202e80:	6105                	addi	sp,sp,32
    80202e82:	8082                	ret

0000000080202e84 <_ZN50_$LT$$RF$mut$u20$W$u20$as$u20$core..fmt..Write$GT$9write_fmt17h0dd407175765c4bcE.llvm.4080457696073421243>:
    80202e84:	715d                	addi	sp,sp,-80
    80202e86:	e486                	sd	ra,72(sp)
    80202e88:	e0a2                	sd	s0,64(sp)
    80202e8a:	0880                	addi	s0,sp,80
    80202e8c:	6108                	ld	a0,0(a0)
    80202e8e:	7590                	ld	a2,40(a1)
    80202e90:	7194                	ld	a3,32(a1)
    80202e92:	faa43c23          	sd	a0,-72(s0)
    80202e96:	fec43423          	sd	a2,-24(s0)
    80202e9a:	fed43023          	sd	a3,-32(s0)
    80202e9e:	6d88                	ld	a0,24(a1)
    80202ea0:	6990                	ld	a2,16(a1)
    80202ea2:	6594                	ld	a3,8(a1)
    80202ea4:	618c                	ld	a1,0(a1)
    80202ea6:	fca43c23          	sd	a0,-40(s0)
    80202eaa:	fcc43823          	sd	a2,-48(s0)
    80202eae:	fcd43423          	sd	a3,-56(s0)
    80202eb2:	fcb43023          	sd	a1,-64(s0)

0000000080202eb6 <.LBB2_1>:
    80202eb6:	0000e597          	auipc	a1,0xe
    80202eba:	d9a58593          	addi	a1,a1,-614 # 80210c50 <anon.3864ce854fd1093fe353f51790d6b615.0.llvm.4080457696073421243>
    80202ebe:	fb840513          	addi	a0,s0,-72
    80202ec2:	fc040613          	addi	a2,s0,-64
    80202ec6:	0000a097          	auipc	ra,0xa
    80202eca:	424080e7          	jalr	1060(ra) # 8020d2ea <_ZN4core3fmt5write17h338141860f5a80fbE>
    80202ece:	6406                	ld	s0,64(sp)
    80202ed0:	60a6                	ld	ra,72(sp)
    80202ed2:	6161                	addi	sp,sp,80
    80202ed4:	8082                	ret

0000000080202ed6 <_ZN50_$LT$$RF$mut$u20$W$u20$as$u20$core..fmt..Write$GT$9write_str17h41300a4199980630E.llvm.4080457696073421243>:
    80202ed6:	1141                	addi	sp,sp,-16
    80202ed8:	e406                	sd	ra,8(sp)
    80202eda:	e022                	sd	s0,0(sp)
    80202edc:	0800                	addi	s0,sp,16
    80202ede:	852e                	mv	a0,a1
    80202ee0:	85b2                	mv	a1,a2
    80202ee2:	00000097          	auipc	ra,0x0
    80202ee6:	012080e7          	jalr	18(ra) # 80202ef4 <_ZN56_$LT$os..logging..Stdout$u20$as$u20$core..fmt..Write$GT$9write_str17h6ceff79f579daa9cE>
    80202eea:	4501                	li	a0,0
    80202eec:	6402                	ld	s0,0(sp)
    80202eee:	60a2                	ld	ra,8(sp)
    80202ef0:	0141                	addi	sp,sp,16
    80202ef2:	8082                	ret

0000000080202ef4 <_ZN56_$LT$os..logging..Stdout$u20$as$u20$core..fmt..Write$GT$9write_str17h6ceff79f579daa9cE>:
    80202ef4:	1101                	addi	sp,sp,-32
    80202ef6:	ec06                	sd	ra,24(sp)
    80202ef8:	e822                	sd	s0,16(sp)
    80202efa:	e426                	sd	s1,8(sp)
    80202efc:	1000                	addi	s0,sp,32
    80202efe:	fe042223          	sw	zero,-28(s0)
    80202f02:	18058c63          	beqz	a1,8020309a <_ZN56_$LT$os..logging..Stdout$u20$as$u20$core..fmt..Write$GT$9write_str17h6ceff79f579daa9cE+0x1a6>
    80202f06:	86aa                	mv	a3,a0
    80202f08:	00b50733          	add	a4,a0,a1
    80202f0c:	fe440813          	addi	a6,s0,-28
    80202f10:	00186f93          	ori	t6,a6,1
    80202f14:	52fd                	li	t0,-1
    80202f16:	0e000313          	li	t1,224
    80202f1a:	0f000393          	li	t2,240
    80202f1e:	001c0e37          	lui	t3,0x1c0
    80202f22:	00110eb7          	lui	t4,0x110
    80202f26:	08000f13          	li	t5,128
    80202f2a:	a019                	j	80202f30 <_ZN56_$LT$os..logging..Stdout$u20$as$u20$core..fmt..Write$GT$9write_str17h6ceff79f579daa9cE+0x3c>
    80202f2c:	16e68763          	beq	a3,a4,8020309a <_ZN56_$LT$os..logging..Stdout$u20$as$u20$core..fmt..Write$GT$9write_str17h6ceff79f579daa9cE+0x1a6>
    80202f30:	00068603          	lb	a2,0(a3)
    80202f34:	00168593          	addi	a1,a3,1
    80202f38:	0ff67513          	andi	a0,a2,255
    80202f3c:	00c2d863          	bge	t0,a2,80202f4c <_ZN56_$LT$os..logging..Stdout$u20$as$u20$core..fmt..Write$GT$9write_str17h6ceff79f579daa9cE+0x58>
    80202f40:	86ae                	mv	a3,a1
    80202f42:	fea40223          	sb	a0,-28(s0)
    80202f46:	4785                	li	a5,1
    80202f48:	e3d9                	bnez	a5,80202fce <_ZN56_$LT$os..logging..Stdout$u20$as$u20$core..fmt..Write$GT$9write_str17h6ceff79f579daa9cE+0xda>
    80202f4a:	b7cd                	j	80202f2c <_ZN56_$LT$os..logging..Stdout$u20$as$u20$core..fmt..Write$GT$9write_str17h6ceff79f579daa9cE+0x38>
    80202f4c:	02e58e63          	beq	a1,a4,80202f88 <_ZN56_$LT$os..logging..Stdout$u20$as$u20$core..fmt..Write$GT$9write_str17h6ceff79f579daa9cE+0x94>
    80202f50:	0016c583          	lbu	a1,1(a3)
    80202f54:	0689                	addi	a3,a3,2
    80202f56:	03f5f613          	andi	a2,a1,63
    80202f5a:	01f57593          	andi	a1,a0,31
    80202f5e:	02656b63          	bltu	a0,t1,80202f94 <_ZN56_$LT$os..logging..Stdout$u20$as$u20$core..fmt..Write$GT$9write_str17h6ceff79f579daa9cE+0xa0>
    80202f62:	02e68d63          	beq	a3,a4,80202f9c <_ZN56_$LT$os..logging..Stdout$u20$as$u20$core..fmt..Write$GT$9write_str17h6ceff79f579daa9cE+0xa8>
    80202f66:	0006c783          	lbu	a5,0(a3)
    80202f6a:	0685                	addi	a3,a3,1
    80202f6c:	03f7f793          	andi	a5,a5,63
    80202f70:	061a                	slli	a2,a2,0x6
    80202f72:	8e5d                	or	a2,a2,a5
    80202f74:	02756a63          	bltu	a0,t2,80202fa8 <_ZN56_$LT$os..logging..Stdout$u20$as$u20$core..fmt..Write$GT$9write_str17h6ceff79f579daa9cE+0xb4>
    80202f78:	02e68c63          	beq	a3,a4,80202fb0 <_ZN56_$LT$os..logging..Stdout$u20$as$u20$core..fmt..Write$GT$9write_str17h6ceff79f579daa9cE+0xbc>
    80202f7c:	0006c503          	lbu	a0,0(a3)
    80202f80:	0685                	addi	a3,a3,1
    80202f82:	03f57513          	andi	a0,a0,63
    80202f86:	a035                	j	80202fb2 <_ZN56_$LT$os..logging..Stdout$u20$as$u20$core..fmt..Write$GT$9write_str17h6ceff79f579daa9cE+0xbe>
    80202f88:	4601                	li	a2,0
    80202f8a:	86ba                	mv	a3,a4
    80202f8c:	01f57593          	andi	a1,a0,31
    80202f90:	fc6579e3          	bgeu	a0,t1,80202f62 <_ZN56_$LT$os..logging..Stdout$u20$as$u20$core..fmt..Write$GT$9write_str17h6ceff79f579daa9cE+0x6e>
    80202f94:	00659513          	slli	a0,a1,0x6
    80202f98:	8d51                	or	a0,a0,a2
    80202f9a:	a025                	j	80202fc2 <_ZN56_$LT$os..logging..Stdout$u20$as$u20$core..fmt..Write$GT$9write_str17h6ceff79f579daa9cE+0xce>
    80202f9c:	4781                	li	a5,0
    80202f9e:	86ba                	mv	a3,a4
    80202fa0:	061a                	slli	a2,a2,0x6
    80202fa2:	8e5d                	or	a2,a2,a5
    80202fa4:	fc757ae3          	bgeu	a0,t2,80202f78 <_ZN56_$LT$os..logging..Stdout$u20$as$u20$core..fmt..Write$GT$9write_str17h6ceff79f579daa9cE+0x84>
    80202fa8:	00c59513          	slli	a0,a1,0xc
    80202fac:	8d51                	or	a0,a0,a2
    80202fae:	a811                	j	80202fc2 <_ZN56_$LT$os..logging..Stdout$u20$as$u20$core..fmt..Write$GT$9write_str17h6ceff79f579daa9cE+0xce>
    80202fb0:	4501                	li	a0,0
    80202fb2:	05ca                	slli	a1,a1,0x12
    80202fb4:	01c5f5b3          	and	a1,a1,t3
    80202fb8:	061a                	slli	a2,a2,0x6
    80202fba:	8dd1                	or	a1,a1,a2
    80202fbc:	8d4d                	or	a0,a0,a1
    80202fbe:	0dd50e63          	beq	a0,t4,8020309a <_ZN56_$LT$os..logging..Stdout$u20$as$u20$core..fmt..Write$GT$9write_str17h6ceff79f579daa9cE+0x1a6>
    80202fc2:	03e57e63          	bgeu	a0,t5,80202ffe <_ZN56_$LT$os..logging..Stdout$u20$as$u20$core..fmt..Write$GT$9write_str17h6ceff79f579daa9cE+0x10a>
    80202fc6:	fea40223          	sb	a0,-28(s0)
    80202fca:	4785                	li	a5,1
    80202fcc:	d3a5                	beqz	a5,80202f2c <_ZN56_$LT$os..logging..Stdout$u20$as$u20$core..fmt..Write$GT$9write_str17h6ceff79f579daa9cE+0x38>
    80202fce:	0ff57513          	andi	a0,a0,255
    80202fd2:	4885                	li	a7,1
    80202fd4:	4581                	li	a1,0
    80202fd6:	4601                	li	a2,0
    80202fd8:	00000073          	ecall
    80202fdc:	00f80533          	add	a0,a6,a5
    80202fe0:	f4af86e3          	beq	t6,a0,80202f2c <_ZN56_$LT$os..logging..Stdout$u20$as$u20$core..fmt..Write$GT$9write_str17h6ceff79f579daa9cE+0x38>
    80202fe4:	17fd                	addi	a5,a5,-1
    80202fe6:	84fe                	mv	s1,t6
    80202fe8:	0004c503          	lbu	a0,0(s1)
    80202fec:	4885                	li	a7,1
    80202fee:	4581                	li	a1,0
    80202ff0:	4601                	li	a2,0
    80202ff2:	00000073          	ecall
    80202ff6:	17fd                	addi	a5,a5,-1
    80202ff8:	0485                	addi	s1,s1,1
    80202ffa:	f7fd                	bnez	a5,80202fe8 <_ZN56_$LT$os..logging..Stdout$u20$as$u20$core..fmt..Write$GT$9write_str17h6ceff79f579daa9cE+0xf4>
    80202ffc:	bf05                	j	80202f2c <_ZN56_$LT$os..logging..Stdout$u20$as$u20$core..fmt..Write$GT$9write_str17h6ceff79f579daa9cE+0x38>
    80202ffe:	00b55593          	srli	a1,a0,0xb
    80203002:	e18d                	bnez	a1,80203024 <_ZN56_$LT$os..logging..Stdout$u20$as$u20$core..fmt..Write$GT$9write_str17h6ceff79f579daa9cE+0x130>
    80203004:	00655593          	srli	a1,a0,0x6
    80203008:	03f57513          	andi	a0,a0,63
    8020300c:	fc05e593          	ori	a1,a1,-64
    80203010:	feb40223          	sb	a1,-28(s0)
    80203014:	08056513          	ori	a0,a0,128
    80203018:	fea402a3          	sb	a0,-27(s0)
    8020301c:	4789                	li	a5,2
    8020301e:	852e                	mv	a0,a1
    80203020:	f7dd                	bnez	a5,80202fce <_ZN56_$LT$os..logging..Stdout$u20$as$u20$core..fmt..Write$GT$9write_str17h6ceff79f579daa9cE+0xda>
    80203022:	b729                	j	80202f2c <_ZN56_$LT$os..logging..Stdout$u20$as$u20$core..fmt..Write$GT$9write_str17h6ceff79f579daa9cE+0x38>
    80203024:	01055593          	srli	a1,a0,0x10
    80203028:	e98d                	bnez	a1,8020305a <_ZN56_$LT$os..logging..Stdout$u20$as$u20$core..fmt..Write$GT$9write_str17h6ceff79f579daa9cE+0x166>
    8020302a:	00c55593          	srli	a1,a0,0xc
    8020302e:	00655613          	srli	a2,a0,0x6
    80203032:	03f57513          	andi	a0,a0,63
    80203036:	fe05e593          	ori	a1,a1,-32
    8020303a:	feb40223          	sb	a1,-28(s0)
    8020303e:	03f67613          	andi	a2,a2,63
    80203042:	08066613          	ori	a2,a2,128
    80203046:	fec402a3          	sb	a2,-27(s0)
    8020304a:	08056513          	ori	a0,a0,128
    8020304e:	fea40323          	sb	a0,-26(s0)
    80203052:	478d                	li	a5,3
    80203054:	852e                	mv	a0,a1
    80203056:	ffa5                	bnez	a5,80202fce <_ZN56_$LT$os..logging..Stdout$u20$as$u20$core..fmt..Write$GT$9write_str17h6ceff79f579daa9cE+0xda>
    80203058:	bdd1                	j	80202f2c <_ZN56_$LT$os..logging..Stdout$u20$as$u20$core..fmt..Write$GT$9write_str17h6ceff79f579daa9cE+0x38>
    8020305a:	01255593          	srli	a1,a0,0x12
    8020305e:	00c55613          	srli	a2,a0,0xc
    80203062:	00655793          	srli	a5,a0,0x6
    80203066:	03f57513          	andi	a0,a0,63
    8020306a:	ff05e593          	ori	a1,a1,-16
    8020306e:	feb40223          	sb	a1,-28(s0)
    80203072:	03f67613          	andi	a2,a2,63
    80203076:	08066613          	ori	a2,a2,128
    8020307a:	fec402a3          	sb	a2,-27(s0)
    8020307e:	03f7f613          	andi	a2,a5,63
    80203082:	08066613          	ori	a2,a2,128
    80203086:	fec40323          	sb	a2,-26(s0)
    8020308a:	08056513          	ori	a0,a0,128
    8020308e:	fea403a3          	sb	a0,-25(s0)
    80203092:	4791                	li	a5,4
    80203094:	852e                	mv	a0,a1
    80203096:	ff85                	bnez	a5,80202fce <_ZN56_$LT$os..logging..Stdout$u20$as$u20$core..fmt..Write$GT$9write_str17h6ceff79f579daa9cE+0xda>
    80203098:	bd51                	j	80202f2c <_ZN56_$LT$os..logging..Stdout$u20$as$u20$core..fmt..Write$GT$9write_str17h6ceff79f579daa9cE+0x38>
    8020309a:	64a2                	ld	s1,8(sp)
    8020309c:	6442                	ld	s0,16(sp)
    8020309e:	60e2                	ld	ra,24(sp)
    802030a0:	6105                	addi	sp,sp,32
    802030a2:	8082                	ret

00000000802030a4 <_ZN54_$LT$os..logging..SimpleLogger$u20$as$u20$log..Log$GT$7enabled17hf596e5e18fc7b451E.llvm.4080457696073421243>:
    802030a4:	1141                	addi	sp,sp,-16
    802030a6:	e406                	sd	ra,8(sp)
    802030a8:	e022                	sd	s0,0(sp)
    802030aa:	0800                	addi	s0,sp,16
    802030ac:	4505                	li	a0,1
    802030ae:	6402                	ld	s0,0(sp)
    802030b0:	60a2                	ld	ra,8(sp)
    802030b2:	0141                	addi	sp,sp,16
    802030b4:	8082                	ret

00000000802030b6 <_ZN54_$LT$os..logging..SimpleLogger$u20$as$u20$log..Log$GT$3log17hcd40a9601e2e4df9E.llvm.4080457696073421243>:
    802030b6:	7155                	addi	sp,sp,-208
    802030b8:	e586                	sd	ra,200(sp)
    802030ba:	e1a2                	sd	s0,192(sp)
    802030bc:	0980                	addi	s0,sp,208
    802030be:	6188                	ld	a0,0(a1)
    802030c0:	f8a43023          	sd	a0,-128(s0)
    802030c4:	05e1                	addi	a1,a1,24
    802030c6:	f8b43423          	sd	a1,-120(s0)
    802030ca:	f8040593          	addi	a1,s0,-128
    802030ce:	f6b43023          	sd	a1,-160(s0)

00000000802030d2 <.LBB16_3>:
    802030d2:	00009597          	auipc	a1,0x9
    802030d6:	68858593          	addi	a1,a1,1672 # 8020c75a <_ZN49_$LT$log..Level$u20$as$u20$core..fmt..Display$GT$3fmt17h386784179059ff14E>
    802030da:	f6b43423          	sd	a1,-152(s0)
    802030de:	f8840593          	addi	a1,s0,-120
    802030e2:	f6b43823          	sd	a1,-144(s0)

00000000802030e6 <.LBB16_4>:
    802030e6:	00000597          	auipc	a1,0x0
    802030ea:	44058593          	addi	a1,a1,1088 # 80203526 <_ZN44_$LT$$RF$T$u20$as$u20$core..fmt..Display$GT$3fmt17h1f72ffb2f6d9e089E>
    802030ee:	f6b43c23          	sd	a1,-136(s0)

00000000802030f2 <.LBB16_5>:
    802030f2:	0000e597          	auipc	a1,0xe
    802030f6:	cae58593          	addi	a1,a1,-850 # 80210da0 <.Lanon.3864ce854fd1093fe353f51790d6b615.23>
    802030fa:	f2b43823          	sd	a1,-208(s0)
    802030fe:	458d                	li	a1,3
    80203100:	f2b43c23          	sd	a1,-200(s0)

0000000080203104 <.LBB16_6>:
    80203104:	0000e617          	auipc	a2,0xe
    80203108:	ccc60613          	addi	a2,a2,-820 # 80210dd0 <.Lanon.3864ce854fd1093fe353f51790d6b615.24>
    8020310c:	f4c43023          	sd	a2,-192(s0)
    80203110:	4609                	li	a2,2
    80203112:	f4c43423          	sd	a2,-184(s0)
    80203116:	f6040693          	addi	a3,s0,-160
    8020311a:	f4d43823          	sd	a3,-176(s0)
    8020311e:	f4c43c23          	sd	a2,-168(s0)
    80203122:	050e                	slli	a0,a0,0x3
    80203124:	1561                	addi	a0,a0,-8
    80203126:	4685                	li	a3,1
    80203128:	16a2                	slli	a3,a3,0x28
    8020312a:	16e1                	addi	a3,a3,-8
    8020312c:	8d75                	and	a0,a0,a3
    8020312e:	02d106b7          	lui	a3,0x2d10
    80203132:	1136869b          	addiw	a3,a3,275
    80203136:	06b6                	slli	a3,a3,0xd
    80203138:	d1f68693          	addi	a3,a3,-737 # 2d0fd1f <.Lline_table_start0+0x2cf0806>
    8020313c:	00a6d533          	srl	a0,a3,a0
    80203140:	faa40ba3          	sb	a0,-73(s0)
    80203144:	fb740513          	addi	a0,s0,-73
    80203148:	f8a43823          	sd	a0,-112(s0)

000000008020314c <.LBB16_7>:
    8020314c:	0000c517          	auipc	a0,0xc
    80203150:	f9850513          	addi	a0,a0,-104 # 8020f0e4 <_ZN4core3fmt3num3imp51_$LT$impl$u20$core..fmt..Display$u20$for$u20$u8$GT$3fmt17ha48a39a8a097abc0E>
    80203154:	f8a43c23          	sd	a0,-104(s0)
    80203158:	f3040513          	addi	a0,s0,-208
    8020315c:	faa43023          	sd	a0,-96(s0)

0000000080203160 <.LBB16_8>:
    80203160:	0000a517          	auipc	a0,0xa
    80203164:	15850513          	addi	a0,a0,344 # 8020d2b8 <_ZN59_$LT$core..fmt..Arguments$u20$as$u20$core..fmt..Display$GT$3fmt17h6000ae836ac5c51cE>
    80203168:	faa43423          	sd	a0,-88(s0)
    8020316c:	fc040513          	addi	a0,s0,-64
    80203170:	faa43c23          	sd	a0,-72(s0)

0000000080203174 <.LBB16_9>:
    80203174:	0000e517          	auipc	a0,0xe
    80203178:	bf450513          	addi	a0,a0,-1036 # 80210d68 <.Lanon.3864ce854fd1093fe353f51790d6b615.19>
    8020317c:	fca43023          	sd	a0,-64(s0)
    80203180:	fcb43423          	sd	a1,-56(s0)
    80203184:	fc043823          	sd	zero,-48(s0)
    80203188:	f9040513          	addi	a0,s0,-112
    8020318c:	fea43023          	sd	a0,-32(s0)
    80203190:	fec43423          	sd	a2,-24(s0)

0000000080203194 <.LBB16_10>:
    80203194:	0000e597          	auipc	a1,0xe
    80203198:	abc58593          	addi	a1,a1,-1348 # 80210c50 <anon.3864ce854fd1093fe353f51790d6b615.0.llvm.4080457696073421243>
    8020319c:	fb840513          	addi	a0,s0,-72
    802031a0:	fc040613          	addi	a2,s0,-64
    802031a4:	0000a097          	auipc	ra,0xa
    802031a8:	146080e7          	jalr	326(ra) # 8020d2ea <_ZN4core3fmt5write17h338141860f5a80fbE>
    802031ac:	e509                	bnez	a0,802031b6 <.LBB16_11>
    802031ae:	640e                	ld	s0,192(sp)
    802031b0:	60ae                	ld	ra,200(sp)
    802031b2:	6169                	addi	sp,sp,208
    802031b4:	8082                	ret

00000000802031b6 <.LBB16_11>:
    802031b6:	0000e517          	auipc	a0,0xe
    802031ba:	aca50513          	addi	a0,a0,-1334 # 80210c80 <anon.3864ce854fd1093fe353f51790d6b615.1.llvm.4080457696073421243>

00000000802031be <.LBB16_12>:
    802031be:	0000e697          	auipc	a3,0xe
    802031c2:	af268693          	addi	a3,a3,-1294 # 80210cb0 <anon.3864ce854fd1093fe353f51790d6b615.2.llvm.4080457696073421243>

00000000802031c6 <.LBB16_13>:
    802031c6:	0000e717          	auipc	a4,0xe
    802031ca:	b3a70713          	addi	a4,a4,-1222 # 80210d00 <anon.3864ce854fd1093fe353f51790d6b615.8.llvm.4080457696073421243>
    802031ce:	fc040613          	addi	a2,s0,-64
    802031d2:	02b00593          	li	a1,43
    802031d6:	0000a097          	auipc	ra,0xa
    802031da:	838080e7          	jalr	-1992(ra) # 8020ca0e <_ZN4core6option18expect_none_failed17hf4b8b266798017eaE>
	...

00000000802031e0 <_ZN54_$LT$os..logging..SimpleLogger$u20$as$u20$log..Log$GT$5flush17h9a42e89d9cb967edE.llvm.4080457696073421243>:
    802031e0:	1141                	addi	sp,sp,-16
    802031e2:	e406                	sd	ra,8(sp)
    802031e4:	e022                	sd	s0,0(sp)
    802031e6:	0800                	addi	s0,sp,16
    802031e8:	6402                	ld	s0,0(sp)
    802031ea:	60a2                	ld	ra,8(sp)
    802031ec:	0141                	addi	sp,sp,16
    802031ee:	8082                	ret

00000000802031f0 <_ZN5alloc4sync12Arc$LT$T$GT$9drop_slow17h161807ed9e6ff476E>:
    802031f0:	1101                	addi	sp,sp,-32
    802031f2:	ec06                	sd	ra,24(sp)
    802031f4:	e822                	sd	s0,16(sp)
    802031f6:	e426                	sd	s1,8(sp)
    802031f8:	1000                	addi	s0,sp,32
    802031fa:	84aa                	mv	s1,a0
    802031fc:	6108                	ld	a0,0(a0)
    802031fe:	710c                	ld	a1,32(a0)
    80203200:	4605                	li	a2,1
    80203202:	40c006b3          	neg	a3,a2
    80203206:	02d5b5af          	amoadd.d.rl	a1,a3,(a1)
    8020320a:	00c59a63          	bne	a1,a2,8020321e <_ZN5alloc4sync12Arc$LT$T$GT$9drop_slow17h161807ed9e6ff476E+0x2e>
    8020320e:	02050513          	addi	a0,a0,32
    80203212:	0230000f          	fence	r,rw
    80203216:	00000097          	auipc	ra,0x0
    8020321a:	12c080e7          	jalr	300(ra) # 80203342 <_ZN5alloc4sync12Arc$LT$T$GT$9drop_slow17h6eb67771cee7ffacE>
    8020321e:	6088                	ld	a0,0(s1)
    80203220:	55fd                	li	a1,-1
    80203222:	02b50863          	beq	a0,a1,80203252 <_ZN5alloc4sync12Arc$LT$T$GT$9drop_slow17h161807ed9e6ff476E+0x62>
    80203226:	00850593          	addi	a1,a0,8
    8020322a:	4605                	li	a2,1
    8020322c:	40c006b3          	neg	a3,a2
    80203230:	02d5b5af          	amoadd.d.rl	a1,a3,(a1)
    80203234:	00c59f63          	bne	a1,a2,80203252 <_ZN5alloc4sync12Arc$LT$T$GT$9drop_slow17h161807ed9e6ff476E+0x62>
    80203238:	05800593          	li	a1,88
    8020323c:	4621                	li	a2,8
    8020323e:	0230000f          	fence	r,rw
    80203242:	64a2                	ld	s1,8(sp)
    80203244:	6442                	ld	s0,16(sp)
    80203246:	60e2                	ld	ra,24(sp)
    80203248:	6105                	addi	sp,sp,32
    8020324a:	00002317          	auipc	t1,0x2
    8020324e:	60430067          	jr	1540(t1) # 8020584e <__rust_dealloc>
    80203252:	64a2                	ld	s1,8(sp)
    80203254:	6442                	ld	s0,16(sp)
    80203256:	60e2                	ld	ra,24(sp)
    80203258:	6105                	addi	sp,sp,32
    8020325a:	8082                	ret

000000008020325c <_ZN5alloc4sync12Arc$LT$T$GT$9drop_slow17h27ee4cb9dd84a7a4E>:
    8020325c:	7179                	addi	sp,sp,-48
    8020325e:	f406                	sd	ra,40(sp)
    80203260:	f022                	sd	s0,32(sp)
    80203262:	ec26                	sd	s1,24(sp)
    80203264:	e84a                	sd	s2,16(sp)
    80203266:	e44e                	sd	s3,8(sp)
    80203268:	e052                	sd	s4,0(sp)
    8020326a:	1800                	addi	s0,sp,48
    8020326c:	892a                	mv	s2,a0
    8020326e:	00053983          	ld	s3,0(a0)
    80203272:	0389b503          	ld	a0,56(s3)
    80203276:	cd19                	beqz	a0,80203294 <_ZN5alloc4sync12Arc$LT$T$GT$9drop_slow17h27ee4cb9dd84a7a4E+0x38>
    80203278:	0289b583          	ld	a1,40(s3)
    8020327c:	00351493          	slli	s1,a0,0x3
    80203280:	6188                	ld	a0,0(a1)
    80203282:	00858a13          	addi	s4,a1,8
    80203286:	00002097          	auipc	ra,0x2
    8020328a:	96a080e7          	jalr	-1686(ra) # 80204bf0 <_ZN2os2mm15frame_allocator13frame_dealloc17h4828e963a0fceefbE>
    8020328e:	14e1                	addi	s1,s1,-8
    80203290:	85d2                	mv	a1,s4
    80203292:	f4fd                	bnez	s1,80203280 <_ZN5alloc4sync12Arc$LT$T$GT$9drop_slow17h27ee4cb9dd84a7a4E+0x24>
    80203294:	0309b503          	ld	a0,48(s3)
    80203298:	c919                	beqz	a0,802032ae <_ZN5alloc4sync12Arc$LT$T$GT$9drop_slow17h27ee4cb9dd84a7a4E+0x52>
    8020329a:	00351593          	slli	a1,a0,0x3
    8020329e:	c981                	beqz	a1,802032ae <_ZN5alloc4sync12Arc$LT$T$GT$9drop_slow17h27ee4cb9dd84a7a4E+0x52>
    802032a0:	0289b503          	ld	a0,40(s3)
    802032a4:	4621                	li	a2,8
    802032a6:	00002097          	auipc	ra,0x2
    802032aa:	5a8080e7          	jalr	1448(ra) # 8020584e <__rust_dealloc>
    802032ae:	0509b503          	ld	a0,80(s3)
    802032b2:	c11d                	beqz	a0,802032d8 <_ZN5alloc4sync12Arc$LT$T$GT$9drop_slow17h27ee4cb9dd84a7a4E+0x7c>
    802032b4:	0409b583          	ld	a1,64(s3)
    802032b8:	01058a13          	addi	s4,a1,16
    802032bc:	03000593          	li	a1,48
    802032c0:	02b504b3          	mul	s1,a0,a1
    802032c4:	8552                	mv	a0,s4
    802032c6:	00000097          	auipc	ra,0x0
    802032ca:	44e080e7          	jalr	1102(ra) # 80203714 <_ZN95_$LT$alloc..collections..btree..map..BTreeMap$LT$K$C$V$GT$$u20$as$u20$core..ops..drop..Drop$GT$4drop17hdc4487872ad95ec0E>
    802032ce:	fd048493          	addi	s1,s1,-48
    802032d2:	030a0a13          	addi	s4,s4,48
    802032d6:	f4fd                	bnez	s1,802032c4 <_ZN5alloc4sync12Arc$LT$T$GT$9drop_slow17h27ee4cb9dd84a7a4E+0x68>
    802032d8:	0489b503          	ld	a0,72(s3)
    802032dc:	cd09                	beqz	a0,802032f6 <_ZN5alloc4sync12Arc$LT$T$GT$9drop_slow17h27ee4cb9dd84a7a4E+0x9a>
    802032de:	03000593          	li	a1,48
    802032e2:	02b505b3          	mul	a1,a0,a1
    802032e6:	c981                	beqz	a1,802032f6 <_ZN5alloc4sync12Arc$LT$T$GT$9drop_slow17h27ee4cb9dd84a7a4E+0x9a>
    802032e8:	0409b503          	ld	a0,64(s3)
    802032ec:	4621                	li	a2,8
    802032ee:	00002097          	auipc	ra,0x2
    802032f2:	560080e7          	jalr	1376(ra) # 8020584e <__rust_dealloc>
    802032f6:	00093503          	ld	a0,0(s2)
    802032fa:	55fd                	li	a1,-1
    802032fc:	02b50b63          	beq	a0,a1,80203332 <_ZN5alloc4sync12Arc$LT$T$GT$9drop_slow17h27ee4cb9dd84a7a4E+0xd6>
    80203300:	00850593          	addi	a1,a0,8
    80203304:	4605                	li	a2,1
    80203306:	40c006b3          	neg	a3,a2
    8020330a:	02d5b5af          	amoadd.d.rl	a1,a3,(a1)
    8020330e:	02c59263          	bne	a1,a2,80203332 <_ZN5alloc4sync12Arc$LT$T$GT$9drop_slow17h27ee4cb9dd84a7a4E+0xd6>
    80203312:	05800593          	li	a1,88
    80203316:	4621                	li	a2,8
    80203318:	0230000f          	fence	r,rw
    8020331c:	6a02                	ld	s4,0(sp)
    8020331e:	69a2                	ld	s3,8(sp)
    80203320:	6942                	ld	s2,16(sp)
    80203322:	64e2                	ld	s1,24(sp)
    80203324:	7402                	ld	s0,32(sp)
    80203326:	70a2                	ld	ra,40(sp)
    80203328:	6145                	addi	sp,sp,48
    8020332a:	00002317          	auipc	t1,0x2
    8020332e:	52430067          	jr	1316(t1) # 8020584e <__rust_dealloc>
    80203332:	6a02                	ld	s4,0(sp)
    80203334:	69a2                	ld	s3,8(sp)
    80203336:	6942                	ld	s2,16(sp)
    80203338:	64e2                	ld	s1,24(sp)
    8020333a:	7402                	ld	s0,32(sp)
    8020333c:	70a2                	ld	ra,40(sp)
    8020333e:	6145                	addi	sp,sp,48
    80203340:	8082                	ret

0000000080203342 <_ZN5alloc4sync12Arc$LT$T$GT$9drop_slow17h6eb67771cee7ffacE>:
    80203342:	1101                	addi	sp,sp,-32
    80203344:	ec06                	sd	ra,24(sp)
    80203346:	e822                	sd	s0,16(sp)
    80203348:	e426                	sd	s1,8(sp)
    8020334a:	1000                	addi	s0,sp,32
    8020334c:	84aa                	mv	s1,a0
    8020334e:	6508                	ld	a0,8(a0)
    80203350:	690c                	ld	a1,16(a0)
    80203352:	6090                	ld	a2,0(s1)
    80203354:	6114                	ld	a3,0(a0)
    80203356:	00f58513          	addi	a0,a1,15
    8020335a:	9941                	andi	a0,a0,-16
    8020335c:	9532                	add	a0,a0,a2
    8020335e:	9682                	jalr	a3
    80203360:	6088                	ld	a0,0(s1)
    80203362:	55fd                	li	a1,-1
    80203364:	04b50263          	beq	a0,a1,802033a8 <_ZN5alloc4sync12Arc$LT$T$GT$9drop_slow17h6eb67771cee7ffacE+0x66>
    80203368:	648c                	ld	a1,8(s1)
    8020336a:	00850613          	addi	a2,a0,8
    8020336e:	4685                	li	a3,1
    80203370:	40d00733          	neg	a4,a3
    80203374:	02e6362f          	amoadd.d.rl	a2,a4,(a2)
    80203378:	02d61863          	bne	a2,a3,802033a8 <_ZN5alloc4sync12Arc$LT$T$GT$9drop_slow17h6eb67771cee7ffacE+0x66>
    8020337c:	0230000f          	fence	r,rw
    80203380:	6990                	ld	a2,16(a1)
    80203382:	658c                	ld	a1,8(a1)
    80203384:	46a1                	li	a3,8
    80203386:	00c6e363          	bltu	a3,a2,8020338c <_ZN5alloc4sync12Arc$LT$T$GT$9drop_slow17h6eb67771cee7ffacE+0x4a>
    8020338a:	4621                	li	a2,8
    8020338c:	95b2                	add	a1,a1,a2
    8020338e:	05bd                	addi	a1,a1,15
    80203390:	40c006b3          	neg	a3,a2
    80203394:	8df5                	and	a1,a1,a3
    80203396:	c989                	beqz	a1,802033a8 <_ZN5alloc4sync12Arc$LT$T$GT$9drop_slow17h6eb67771cee7ffacE+0x66>
    80203398:	64a2                	ld	s1,8(sp)
    8020339a:	6442                	ld	s0,16(sp)
    8020339c:	60e2                	ld	ra,24(sp)
    8020339e:	6105                	addi	sp,sp,32
    802033a0:	00002317          	auipc	t1,0x2
    802033a4:	4ae30067          	jr	1198(t1) # 8020584e <__rust_dealloc>
    802033a8:	64a2                	ld	s1,8(sp)
    802033aa:	6442                	ld	s0,16(sp)
    802033ac:	60e2                	ld	ra,24(sp)
    802033ae:	6105                	addi	sp,sp,32
    802033b0:	8082                	ret

00000000802033b2 <_ZN5alloc4sync12Arc$LT$T$GT$9drop_slow17h8a611755a0ebc84eE>:
    802033b2:	1141                	addi	sp,sp,-16
    802033b4:	e406                	sd	ra,8(sp)
    802033b6:	e022                	sd	s0,0(sp)
    802033b8:	0800                	addi	s0,sp,16
    802033ba:	6108                	ld	a0,0(a0)
    802033bc:	55fd                	li	a1,-1
    802033be:	02b50663          	beq	a0,a1,802033ea <_ZN5alloc4sync12Arc$LT$T$GT$9drop_slow17h8a611755a0ebc84eE+0x38>
    802033c2:	00850593          	addi	a1,a0,8
    802033c6:	4605                	li	a2,1
    802033c8:	40c006b3          	neg	a3,a2
    802033cc:	02d5b5af          	amoadd.d.rl	a1,a3,(a1)
    802033d0:	00c59d63          	bne	a1,a2,802033ea <_ZN5alloc4sync12Arc$LT$T$GT$9drop_slow17h8a611755a0ebc84eE+0x38>
    802033d4:	45c1                	li	a1,16
    802033d6:	4621                	li	a2,8
    802033d8:	0230000f          	fence	r,rw
    802033dc:	6402                	ld	s0,0(sp)
    802033de:	60a2                	ld	ra,8(sp)
    802033e0:	0141                	addi	sp,sp,16
    802033e2:	00002317          	auipc	t1,0x2
    802033e6:	46c30067          	jr	1132(t1) # 8020584e <__rust_dealloc>
    802033ea:	6402                	ld	s0,0(sp)
    802033ec:	60a2                	ld	ra,8(sp)
    802033ee:	0141                	addi	sp,sp,16
    802033f0:	8082                	ret

00000000802033f2 <_ZN5alloc4sync12Arc$LT$T$GT$9drop_slow17he6b190def3fbc58dE>:
    802033f2:	7179                	addi	sp,sp,-48
    802033f4:	f406                	sd	ra,40(sp)
    802033f6:	f022                	sd	s0,32(sp)
    802033f8:	ec26                	sd	s1,24(sp)
    802033fa:	e84a                	sd	s2,16(sp)
    802033fc:	e44e                	sd	s3,8(sp)
    802033fe:	e052                	sd	s4,0(sp)
    80203400:	1800                	addi	s0,sp,48
    80203402:	892a                	mv	s2,a0
    80203404:	6104                	ld	s1,0(a0)
    80203406:	7088                	ld	a0,32(s1)
    80203408:	4985                	li	s3,1
    8020340a:	41300a33          	neg	s4,s3
    8020340e:	0345352f          	amoadd.d.rl	a0,s4,(a0)
    80203412:	01350d63          	beq	a0,s3,8020342c <_ZN5alloc4sync12Arc$LT$T$GT$9drop_slow17he6b190def3fbc58dE+0x3a>
    80203416:	7488                	ld	a0,40(s1)
    80203418:	0345352f          	amoadd.d.rl	a0,s4,(a0)
    8020341c:	03350563          	beq	a0,s3,80203446 <_ZN5alloc4sync12Arc$LT$T$GT$9drop_slow17he6b190def3fbc58dE+0x54>
    80203420:	00093503          	ld	a0,0(s2)
    80203424:	55fd                	li	a1,-1
    80203426:	02b51d63          	bne	a0,a1,80203460 <_ZN5alloc4sync12Arc$LT$T$GT$9drop_slow17he6b190def3fbc58dE+0x6e>
    8020342a:	a0a5                	j	80203492 <_ZN5alloc4sync12Arc$LT$T$GT$9drop_slow17he6b190def3fbc58dE+0xa0>
    8020342c:	02048513          	addi	a0,s1,32
    80203430:	0230000f          	fence	r,rw
    80203434:	00000097          	auipc	ra,0x0
    80203438:	dbc080e7          	jalr	-580(ra) # 802031f0 <_ZN5alloc4sync12Arc$LT$T$GT$9drop_slow17h161807ed9e6ff476E>
    8020343c:	7488                	ld	a0,40(s1)
    8020343e:	0345352f          	amoadd.d.rl	a0,s4,(a0)
    80203442:	fd351fe3          	bne	a0,s3,80203420 <_ZN5alloc4sync12Arc$LT$T$GT$9drop_slow17he6b190def3fbc58dE+0x2e>
    80203446:	02848513          	addi	a0,s1,40
    8020344a:	0230000f          	fence	r,rw
    8020344e:	00000097          	auipc	ra,0x0
    80203452:	ef4080e7          	jalr	-268(ra) # 80203342 <_ZN5alloc4sync12Arc$LT$T$GT$9drop_slow17h6eb67771cee7ffacE>
    80203456:	00093503          	ld	a0,0(s2)
    8020345a:	55fd                	li	a1,-1
    8020345c:	02b50b63          	beq	a0,a1,80203492 <_ZN5alloc4sync12Arc$LT$T$GT$9drop_slow17he6b190def3fbc58dE+0xa0>
    80203460:	00850593          	addi	a1,a0,8
    80203464:	4605                	li	a2,1
    80203466:	40c006b3          	neg	a3,a2
    8020346a:	02d5b5af          	amoadd.d.rl	a1,a3,(a1)
    8020346e:	02c59263          	bne	a1,a2,80203492 <_ZN5alloc4sync12Arc$LT$T$GT$9drop_slow17he6b190def3fbc58dE+0xa0>
    80203472:	03800593          	li	a1,56
    80203476:	4621                	li	a2,8
    80203478:	0230000f          	fence	r,rw
    8020347c:	6a02                	ld	s4,0(sp)
    8020347e:	69a2                	ld	s3,8(sp)
    80203480:	6942                	ld	s2,16(sp)
    80203482:	64e2                	ld	s1,24(sp)
    80203484:	7402                	ld	s0,32(sp)
    80203486:	70a2                	ld	ra,40(sp)
    80203488:	6145                	addi	sp,sp,48
    8020348a:	00002317          	auipc	t1,0x2
    8020348e:	3c430067          	jr	964(t1) # 8020584e <__rust_dealloc>
    80203492:	6a02                	ld	s4,0(sp)
    80203494:	69a2                	ld	s3,8(sp)
    80203496:	6942                	ld	s2,16(sp)
    80203498:	64e2                	ld	s1,24(sp)
    8020349a:	7402                	ld	s0,32(sp)
    8020349c:	70a2                	ld	ra,40(sp)
    8020349e:	6145                	addi	sp,sp,48
    802034a0:	8082                	ret

00000000802034a2 <_ZN42_$LT$$RF$T$u20$as$u20$core..fmt..Debug$GT$3fmt17h2738cfdee3e896f9E>:
    802034a2:	1101                	addi	sp,sp,-32
    802034a4:	ec06                	sd	ra,24(sp)
    802034a6:	e822                	sd	s0,16(sp)
    802034a8:	e426                	sd	s1,8(sp)
    802034aa:	e04a                	sd	s2,0(sp)
    802034ac:	1000                	addi	s0,sp,32
    802034ae:	00053903          	ld	s2,0(a0)
    802034b2:	84ae                	mv	s1,a1
    802034b4:	852e                	mv	a0,a1
    802034b6:	0000a097          	auipc	ra,0xa
    802034ba:	56c080e7          	jalr	1388(ra) # 8020da22 <_ZN4core3fmt9Formatter15debug_lower_hex17hffada68515a2cdf7E>
    802034be:	cd01                	beqz	a0,802034d6 <_ZN42_$LT$$RF$T$u20$as$u20$core..fmt..Debug$GT$3fmt17h2738cfdee3e896f9E+0x34>
    802034c0:	854a                	mv	a0,s2
    802034c2:	85a6                	mv	a1,s1
    802034c4:	6902                	ld	s2,0(sp)
    802034c6:	64a2                	ld	s1,8(sp)
    802034c8:	6442                	ld	s0,16(sp)
    802034ca:	60e2                	ld	ra,24(sp)
    802034cc:	6105                	addi	sp,sp,32
    802034ce:	0000c317          	auipc	t1,0xc
    802034d2:	a4630067          	jr	-1466(t1) # 8020ef14 <_ZN4core3fmt3num53_$LT$impl$u20$core..fmt..LowerHex$u20$for$u20$i64$GT$3fmt17he21e11f173f31e15E>
    802034d6:	8526                	mv	a0,s1
    802034d8:	0000a097          	auipc	ra,0xa
    802034dc:	554080e7          	jalr	1364(ra) # 8020da2c <_ZN4core3fmt9Formatter15debug_upper_hex17h3e8dade1475f5ac4E>
    802034e0:	cd01                	beqz	a0,802034f8 <_ZN42_$LT$$RF$T$u20$as$u20$core..fmt..Debug$GT$3fmt17h2738cfdee3e896f9E+0x56>
    802034e2:	854a                	mv	a0,s2
    802034e4:	85a6                	mv	a1,s1
    802034e6:	6902                	ld	s2,0(sp)
    802034e8:	64a2                	ld	s1,8(sp)
    802034ea:	6442                	ld	s0,16(sp)
    802034ec:	60e2                	ld	ra,24(sp)
    802034ee:	6105                	addi	sp,sp,32
    802034f0:	0000c317          	auipc	t1,0xc
    802034f4:	aa430067          	jr	-1372(t1) # 8020ef94 <_ZN4core3fmt3num53_$LT$impl$u20$core..fmt..UpperHex$u20$for$u20$i64$GT$3fmt17h7a5b1e38fb0bc5b9E>
    802034f8:	854a                	mv	a0,s2
    802034fa:	85a6                	mv	a1,s1
    802034fc:	6902                	ld	s2,0(sp)
    802034fe:	64a2                	ld	s1,8(sp)
    80203500:	6442                	ld	s0,16(sp)
    80203502:	60e2                	ld	ra,24(sp)
    80203504:	6105                	addi	sp,sp,32
    80203506:	0000c317          	auipc	t1,0xc
    8020350a:	1fc30067          	jr	508(t1) # 8020f702 <_ZN4core3fmt3num3imp52_$LT$impl$u20$core..fmt..Display$u20$for$u20$u64$GT$3fmt17h056fc685b1c7ea74E>

000000008020350e <_ZN42_$LT$$RF$T$u20$as$u20$core..fmt..Debug$GT$3fmt17hbeae5384057dd4eaE>:
    8020350e:	1141                	addi	sp,sp,-16
    80203510:	e406                	sd	ra,8(sp)
    80203512:	e022                	sd	s0,0(sp)
    80203514:	0800                	addi	s0,sp,16
    80203516:	6108                	ld	a0,0(a0)
    80203518:	6402                	ld	s0,0(sp)
    8020351a:	60a2                	ld	ra,8(sp)
    8020351c:	0141                	addi	sp,sp,16
    8020351e:	0000a317          	auipc	t1,0xa
    80203522:	59830067          	jr	1432(t1) # 8020dab6 <_ZN43_$LT$bool$u20$as$u20$core..fmt..Display$GT$3fmt17h067fc15c1459c2deE>

0000000080203526 <_ZN44_$LT$$RF$T$u20$as$u20$core..fmt..Display$GT$3fmt17h1f72ffb2f6d9e089E>:
    80203526:	1141                	addi	sp,sp,-16
    80203528:	e406                	sd	ra,8(sp)
    8020352a:	e022                	sd	s0,0(sp)
    8020352c:	0800                	addi	s0,sp,16
    8020352e:	6108                	ld	a0,0(a0)
    80203530:	6402                	ld	s0,0(sp)
    80203532:	60a2                	ld	ra,8(sp)
    80203534:	0141                	addi	sp,sp,16
    80203536:	0000a317          	auipc	t1,0xa
    8020353a:	d8230067          	jr	-638(t1) # 8020d2b8 <_ZN59_$LT$core..fmt..Arguments$u20$as$u20$core..fmt..Display$GT$3fmt17h6000ae836ac5c51cE>

000000008020353e <_ZN44_$LT$$RF$T$u20$as$u20$core..fmt..Display$GT$3fmt17hc8cc8fd690c16b4aE>:
    8020353e:	1141                	addi	sp,sp,-16
    80203540:	e406                	sd	ra,8(sp)
    80203542:	e022                	sd	s0,0(sp)
    80203544:	0800                	addi	s0,sp,16
    80203546:	6110                	ld	a2,0(a0)
    80203548:	6514                	ld	a3,8(a0)
    8020354a:	872e                	mv	a4,a1
    8020354c:	8532                	mv	a0,a2
    8020354e:	85b6                	mv	a1,a3
    80203550:	863a                	mv	a2,a4
    80203552:	6402                	ld	s0,0(sp)
    80203554:	60a2                	ld	ra,8(sp)
    80203556:	0141                	addi	sp,sp,16
    80203558:	0000b317          	auipc	t1,0xb
    8020355c:	9f230067          	jr	-1550(t1) # 8020df4a <_ZN42_$LT$str$u20$as$u20$core..fmt..Display$GT$3fmt17h669958e415ffd666E>

0000000080203560 <_ZN2os3sbi8shutdown17haca3fa4052199a01E>:
    80203560:	1141                	addi	sp,sp,-16
    80203562:	e406                	sd	ra,8(sp)
    80203564:	e022                	sd	s0,0(sp)
    80203566:	0800                	addi	s0,sp,16
    80203568:	48a1                	li	a7,8
    8020356a:	4501                	li	a0,0
    8020356c:	4581                	li	a1,0
    8020356e:	4601                	li	a2,0
    80203570:	00000073          	ecall

0000000080203574 <.LBB38_1>:
    80203574:	0000e517          	auipc	a0,0xe
    80203578:	8cc50513          	addi	a0,a0,-1844 # 80210e40 <anon.ddabf61bdaac86f64641ec60e3e20b8f.3.llvm.5641346452209144398>

000000008020357c <.LBB38_2>:
    8020357c:	0000e617          	auipc	a2,0xe
    80203580:	8e460613          	addi	a2,a2,-1820 # 80210e60 <anon.ddabf61bdaac86f64641ec60e3e20b8f.5.llvm.5641346452209144398>
    80203584:	45cd                	li	a1,19
    80203586:	00009097          	auipc	ra,0x9
    8020358a:	4e8080e7          	jalr	1256(ra) # 8020ca6e <_ZN4core9panicking5panic17h4214b4eed8d3f37fE>
	...

0000000080203590 <_ZN65_$LT$os..mm..address..VirtPageNum$u20$as$u20$core..fmt..Debug$GT$3fmt17haac55a57cbe0682cE>:
    80203590:	715d                	addi	sp,sp,-80
    80203592:	e486                	sd	ra,72(sp)
    80203594:	e0a2                	sd	s0,64(sp)
    80203596:	0880                	addi	s0,sp,80
    80203598:	862e                	mv	a2,a1
    8020359a:	fea43023          	sd	a0,-32(s0)

000000008020359e <.LBB42_1>:
    8020359e:	0000c517          	auipc	a0,0xc
    802035a2:	97650513          	addi	a0,a0,-1674 # 8020ef14 <_ZN4core3fmt3num53_$LT$impl$u20$core..fmt..LowerHex$u20$for$u20$i64$GT$3fmt17he21e11f173f31e15E>
    802035a6:	fea43423          	sd	a0,-24(s0)

00000000802035aa <.LBB42_2>:
    802035aa:	0000e517          	auipc	a0,0xe
    802035ae:	8ce50513          	addi	a0,a0,-1842 # 80210e78 <.Lanon.ddabf61bdaac86f64641ec60e3e20b8f.7>
    802035b2:	faa43823          	sd	a0,-80(s0)
    802035b6:	4505                	li	a0,1
    802035b8:	faa43c23          	sd	a0,-72(s0)

00000000802035bc <.LBB42_3>:
    802035bc:	0000e597          	auipc	a1,0xe
    802035c0:	8cc58593          	addi	a1,a1,-1844 # 80210e88 <.Lanon.ddabf61bdaac86f64641ec60e3e20b8f.8>
    802035c4:	fcb43023          	sd	a1,-64(s0)
    802035c8:	fca43423          	sd	a0,-56(s0)
    802035cc:	fe040593          	addi	a1,s0,-32
    802035d0:	fcb43823          	sd	a1,-48(s0)
    802035d4:	fca43c23          	sd	a0,-40(s0)
    802035d8:	fb040593          	addi	a1,s0,-80
    802035dc:	8532                	mv	a0,a2
    802035de:	0000a097          	auipc	ra,0xa
    802035e2:	410080e7          	jalr	1040(ra) # 8020d9ee <_ZN4core3fmt9Formatter9write_fmt17hda8a61c24e520600E>
    802035e6:	6406                	ld	s0,64(sp)
    802035e8:	60a6                	ld	ra,72(sp)
    802035ea:	6161                	addi	sp,sp,80
    802035ec:	8082                	ret

00000000802035ee <_ZN36_$LT$T$u20$as$u20$core..any..Any$GT$7type_id17heb4ff61d69eb0db0E>:
    802035ee:	1141                	addi	sp,sp,-16
    802035f0:	e406                	sd	ra,8(sp)
    802035f2:	e022                	sd	s0,0(sp)
    802035f4:	0800                	addi	s0,sp,16
    802035f6:	fe854537          	lui	a0,0xfe854
    802035fa:	04d5051b          	addiw	a0,a0,77
    802035fe:	0536                	slli	a0,a0,0xd
    80203600:	07f50513          	addi	a0,a0,127 # fffffffffe85407f <ebss+0xffffffff7e42c07f>
    80203604:	0536                	slli	a0,a0,0xd
    80203606:	a0d50513          	addi	a0,a0,-1523
    8020360a:	0532                	slli	a0,a0,0xc
    8020360c:	d9150513          	addi	a0,a0,-623
    80203610:	6402                	ld	s0,0(sp)
    80203612:	60a2                	ld	ra,8(sp)
    80203614:	0141                	addi	sp,sp,16
    80203616:	8082                	ret

0000000080203618 <_ZN4core3ptr42drop_in_place$LT$virtio_drivers..Error$GT$17h63d065c1fbb2cafeE.llvm.2513489228613536760>:
    80203618:	1141                	addi	sp,sp,-16
    8020361a:	e406                	sd	ra,8(sp)
    8020361c:	e022                	sd	s0,0(sp)
    8020361e:	0800                	addi	s0,sp,16
    80203620:	6402                	ld	s0,0(sp)
    80203622:	60a2                	ld	ra,8(sp)
    80203624:	0141                	addi	sp,sp,16
    80203626:	8082                	ret

0000000080203628 <_ZN5alloc11collections5btree3map21BTreeMap$LT$K$C$V$GT$6insert17h7ffcb95ff960a3c5E>:
    80203628:	7151                	addi	sp,sp,-240
    8020362a:	f586                	sd	ra,232(sp)
    8020362c:	f1a2                	sd	s0,224(sp)
    8020362e:	eda6                	sd	s1,216(sp)
    80203630:	e9ca                	sd	s2,208(sp)
    80203632:	e5ce                	sd	s3,200(sp)
    80203634:	e1d2                	sd	s4,192(sp)
    80203636:	1980                	addi	s0,sp,240
    80203638:	89aa                	mv	s3,a0
    8020363a:	6504                	ld	s1,8(a0)
    8020363c:	8932                	mv	s2,a2
    8020363e:	8a2e                	mv	s4,a1
    80203640:	c481                	beqz	s1,80203648 <_ZN5alloc11collections5btree3map21BTreeMap$LT$K$C$V$GT$6insert17h7ffcb95ff960a3c5E+0x20>
    80203642:	0009b803          	ld	a6,0(s3)
    80203646:	a825                	j	8020367e <_ZN5alloc11collections5btree3map21BTreeMap$LT$K$C$V$GT$6insert17h7ffcb95ff960a3c5E+0x56>
    80203648:	0c000513          	li	a0,192
    8020364c:	45a1                	li	a1,8
    8020364e:	00002097          	auipc	ra,0x2
    80203652:	1f8080e7          	jalr	504(ra) # 80205846 <__rust_alloc>
    80203656:	c55d                	beqz	a0,80203704 <_ZN5alloc11collections5btree3map21BTreeMap$LT$K$C$V$GT$6insert17h7ffcb95ff960a3c5E+0xdc>
    80203658:	84aa                	mv	s1,a0
    8020365a:	00053023          	sd	zero,0(a0)
    8020365e:	0521                	addi	a0,a0,8
    80203660:	f1840593          	addi	a1,s0,-232
    80203664:	0b200613          	li	a2,178
    80203668:	0000c097          	auipc	ra,0xc
    8020366c:	7de080e7          	jalr	2014(ra) # 8020fe46 <memcpy>
    80203670:	4801                	li	a6,0
    80203672:	0a049d23          	sh	zero,186(s1)
    80203676:	0009b023          	sd	zero,0(s3)
    8020367a:	0099b423          	sd	s1,8(s3)
    8020367e:	0ba4d883          	lhu	a7,186(s1)
    80203682:	4681                	li	a3,0
    80203684:	00389713          	slli	a4,a7,0x3
    80203688:	55fd                	li	a1,-1
    8020368a:	02d70363          	beq	a4,a3,802036b0 <_ZN5alloc11collections5btree3map21BTreeMap$LT$K$C$V$GT$6insert17h7ffcb95ff960a3c5E+0x88>
    8020368e:	00d48533          	add	a0,s1,a3
    80203692:	6510                	ld	a2,8(a0)
    80203694:	557d                	li	a0,-1
    80203696:	57fd                	li	a5,-1
    80203698:	00ca6663          	bltu	s4,a2,802036a4 <_ZN5alloc11collections5btree3map21BTreeMap$LT$K$C$V$GT$6insert17h7ffcb95ff960a3c5E+0x7c>
    8020369c:	01464633          	xor	a2,a2,s4
    802036a0:	00c037b3          	snez	a5,a2
    802036a4:	0585                	addi	a1,a1,1
    802036a6:	00a78663          	beq	a5,a0,802036b2 <_ZN5alloc11collections5btree3map21BTreeMap$LT$K$C$V$GT$6insert17h7ffcb95ff960a3c5E+0x8a>
    802036aa:	06a1                	addi	a3,a3,8
    802036ac:	fff9                	bnez	a5,8020368a <_ZN5alloc11collections5btree3map21BTreeMap$LT$K$C$V$GT$6insert17h7ffcb95ff960a3c5E+0x62>
    802036ae:	a811                	j	802036c2 <_ZN5alloc11collections5btree3map21BTreeMap$LT$K$C$V$GT$6insert17h7ffcb95ff960a3c5E+0x9a>
    802036b0:	85c6                	mv	a1,a7
    802036b2:	02080663          	beqz	a6,802036de <_ZN5alloc11collections5btree3map21BTreeMap$LT$K$C$V$GT$6insert17h7ffcb95ff960a3c5E+0xb6>
    802036b6:	00359513          	slli	a0,a1,0x3
    802036ba:	9526                	add	a0,a0,s1
    802036bc:	6164                	ld	s1,192(a0)
    802036be:	187d                	addi	a6,a6,-1
    802036c0:	bf7d                	j	8020367e <_ZN5alloc11collections5btree3map21BTreeMap$LT$K$C$V$GT$6insert17h7ffcb95ff960a3c5E+0x56>
    802036c2:	00d48533          	add	a0,s1,a3
    802036c6:	6d2c                	ld	a1,88(a0)
    802036c8:	05253c23          	sd	s2,88(a0)
    802036cc:	4505                	li	a0,1
    802036ce:	6a0e                	ld	s4,192(sp)
    802036d0:	69ae                	ld	s3,200(sp)
    802036d2:	694e                	ld	s2,208(sp)
    802036d4:	64ee                	ld	s1,216(sp)
    802036d6:	740e                	ld	s0,224(sp)
    802036d8:	70ae                	ld	ra,232(sp)
    802036da:	616d                	addi	sp,sp,240
    802036dc:	8082                	ret
    802036de:	f1443c23          	sd	s4,-232(s0)
    802036e2:	f2043023          	sd	zero,-224(s0)
    802036e6:	f2943423          	sd	s1,-216(s0)
    802036ea:	f2b43823          	sd	a1,-208(s0)
    802036ee:	f3343c23          	sd	s3,-200(s0)
    802036f2:	f1840513          	addi	a0,s0,-232
    802036f6:	85ca                	mv	a1,s2
    802036f8:	00001097          	auipc	ra,0x1
    802036fc:	056080e7          	jalr	86(ra) # 8020474e <_ZN5alloc11collections5btree3map5entry24VacantEntry$LT$K$C$V$GT$6insert17hd8d45f2021e03e40E>
    80203700:	4501                	li	a0,0
    80203702:	b7f1                	j	802036ce <_ZN5alloc11collections5btree3map21BTreeMap$LT$K$C$V$GT$6insert17h7ffcb95ff960a3c5E+0xa6>
    80203704:	0c000513          	li	a0,192
    80203708:	45a1                	li	a1,8
    8020370a:	00009097          	auipc	ra,0x9
    8020370e:	fc2080e7          	jalr	-62(ra) # 8020c6cc <_ZN5alloc5alloc18handle_alloc_error17hd88389f3109c4dfdE>
	...

0000000080203714 <_ZN95_$LT$alloc..collections..btree..map..BTreeMap$LT$K$C$V$GT$$u20$as$u20$core..ops..drop..Drop$GT$4drop17hdc4487872ad95ec0E>:
    80203714:	7175                	addi	sp,sp,-144
    80203716:	e506                	sd	ra,136(sp)
    80203718:	e122                	sd	s0,128(sp)
    8020371a:	fca6                	sd	s1,120(sp)
    8020371c:	f8ca                	sd	s2,112(sp)
    8020371e:	f4ce                	sd	s3,104(sp)
    80203720:	f0d2                	sd	s4,96(sp)
    80203722:	ecd6                	sd	s5,88(sp)
    80203724:	e8da                	sd	s6,80(sp)
    80203726:	0900                	addi	s0,sp,144
    80203728:	6510                	ld	a2,8(a0)
    8020372a:	c265                	beqz	a2,8020380a <_ZN95_$LT$alloc..collections..btree..map..BTreeMap$LT$K$C$V$GT$$u20$as$u20$core..ops..drop..Drop$GT$4drop17hdc4487872ad95ec0E+0xf6>
    8020372c:	01053a03          	ld	s4,16(a0)
    80203730:	610c                	ld	a1,0(a0)
    80203732:	f7840513          	addi	a0,s0,-136
    80203736:	86ae                	mv	a3,a1
    80203738:	8732                	mv	a4,a2
    8020373a:	00002097          	auipc	ra,0x2
    8020373e:	b8e080e7          	jalr	-1138(ra) # 802052c8 <_ZN5alloc11collections5btree8navigate10full_range17he6b5e126fc8a1e72E>
    80203742:	f7843503          	ld	a0,-136(s0)
    80203746:	f8043483          	ld	s1,-128(s0)
    8020374a:	060a0763          	beqz	s4,802037b8 <_ZN95_$LT$alloc..collections..btree..map..BTreeMap$LT$K$C$V$GT$$u20$as$u20$core..ops..drop..Drop$GT$4drop17hdc4487872ad95ec0E+0xa4>
    8020374e:	f8843a83          	ld	s5,-120(s0)
    80203752:	fa840913          	addi	s2,s0,-88
    80203756:	f7840993          	addi	s3,s0,-136
    8020375a:	a811                	j	8020376e <_ZN95_$LT$alloc..collections..btree..map..BTreeMap$LT$K$C$V$GT$$u20$as$u20$core..ops..drop..Drop$GT$4drop17hdc4487872ad95ec0E+0x5a>
    8020375c:	4a81                	li	s5,0
    8020375e:	00001097          	auipc	ra,0x1
    80203762:	492080e7          	jalr	1170(ra) # 80204bf0 <_ZN2os2mm15frame_allocator13frame_dealloc17h4828e963a0fceefbE>
    80203766:	4501                	li	a0,0
    80203768:	4b01                	li	s6,0
    8020376a:	040a0863          	beqz	s4,802037ba <_ZN95_$LT$alloc..collections..btree..map..BTreeMap$LT$K$C$V$GT$$u20$as$u20$core..ops..drop..Drop$GT$4drop17hdc4487872ad95ec0E+0xa6>
    8020376e:	c8c5                	beqz	s1,8020381e <.LBB9_20>
    80203770:	1a7d                	addi	s4,s4,-1
    80203772:	f6a43c23          	sd	a0,-136(s0)
    80203776:	f8943023          	sd	s1,-128(s0)
    8020377a:	f9543423          	sd	s5,-120(s0)
    8020377e:	854a                	mv	a0,s2
    80203780:	85ce                	mv	a1,s3
    80203782:	00002097          	auipc	ra,0x2
    80203786:	bec080e7          	jalr	-1044(ra) # 8020536e <_ZN5alloc11collections5btree8navigate25next_kv_unchecked_dealloc17hb94dea03c824f2cbE>
    8020378a:	fb843603          	ld	a2,-72(s0)
    8020378e:	fb043483          	ld	s1,-80(s0)
    80203792:	00361513          	slli	a0,a2,0x3
    80203796:	9526                	add	a0,a0,s1
    80203798:	fa843583          	ld	a1,-88(s0)
    8020379c:	7128                	ld	a0,96(a0)
    8020379e:	00160a93          	addi	s5,a2,1
    802037a2:	ddd5                	beqz	a1,8020375e <_ZN95_$LT$alloc..collections..btree..map..BTreeMap$LT$K$C$V$GT$$u20$as$u20$core..ops..drop..Drop$GT$4drop17hdc4487872ad95ec0E+0x4a>
    802037a4:	003a9613          	slli	a2,s5,0x3
    802037a8:	9626                	add	a2,a2,s1
    802037aa:	6264                	ld	s1,192(a2)
    802037ac:	15fd                	addi	a1,a1,-1
    802037ae:	d5dd                	beqz	a1,8020375c <_ZN95_$LT$alloc..collections..btree..map..BTreeMap$LT$K$C$V$GT$$u20$as$u20$core..ops..drop..Drop$GT$4drop17hdc4487872ad95ec0E+0x48>
    802037b0:	60e4                	ld	s1,192(s1)
    802037b2:	15fd                	addi	a1,a1,-1
    802037b4:	fdf5                	bnez	a1,802037b0 <_ZN95_$LT$alloc..collections..btree..map..BTreeMap$LT$K$C$V$GT$$u20$as$u20$core..ops..drop..Drop$GT$4drop17hdc4487872ad95ec0E+0x9c>
    802037b6:	b75d                	j	8020375c <_ZN95_$LT$alloc..collections..btree..map..BTreeMap$LT$K$C$V$GT$$u20$as$u20$core..ops..drop..Drop$GT$4drop17hdc4487872ad95ec0E+0x48>
    802037b8:	8b2a                	mv	s6,a0
    802037ba:	c8a1                	beqz	s1,8020380a <_ZN95_$LT$alloc..collections..btree..map..BTreeMap$LT$K$C$V$GT$$u20$as$u20$core..ops..drop..Drop$GT$4drop17hdc4487872ad95ec0E+0xf6>
    802037bc:	0004b903          	ld	s2,0(s1)
    802037c0:	0c000593          	li	a1,192
    802037c4:	000b0463          	beqz	s6,802037cc <_ZN95_$LT$alloc..collections..btree..map..BTreeMap$LT$K$C$V$GT$$u20$as$u20$core..ops..drop..Drop$GT$4drop17hdc4487872ad95ec0E+0xb8>
    802037c8:	12000593          	li	a1,288
    802037cc:	4621                	li	a2,8
    802037ce:	8526                	mv	a0,s1
    802037d0:	00002097          	auipc	ra,0x2
    802037d4:	07e080e7          	jalr	126(ra) # 8020584e <__rust_dealloc>
    802037d8:	02090963          	beqz	s2,8020380a <_ZN95_$LT$alloc..collections..btree..map..BTreeMap$LT$K$C$V$GT$$u20$as$u20$core..ops..drop..Drop$GT$4drop17hdc4487872ad95ec0E+0xf6>
    802037dc:	001b0493          	addi	s1,s6,1
    802037e0:	a819                	j	802037f6 <_ZN95_$LT$alloc..collections..btree..map..BTreeMap$LT$K$C$V$GT$$u20$as$u20$core..ops..drop..Drop$GT$4drop17hdc4487872ad95ec0E+0xe2>
    802037e2:	94aa                	add	s1,s1,a0
    802037e4:	4621                	li	a2,8
    802037e6:	854a                	mv	a0,s2
    802037e8:	00002097          	auipc	ra,0x2
    802037ec:	066080e7          	jalr	102(ra) # 8020584e <__rust_dealloc>
    802037f0:	894e                	mv	s2,s3
    802037f2:	00098c63          	beqz	s3,8020380a <_ZN95_$LT$alloc..collections..btree..map..BTreeMap$LT$K$C$V$GT$$u20$as$u20$core..ops..drop..Drop$GT$4drop17hdc4487872ad95ec0E+0xf6>
    802037f6:	00093983          	ld	s3,0(s2)
    802037fa:	01303533          	snez	a0,s3
    802037fe:	0c000593          	li	a1,192
    80203802:	d0e5                	beqz	s1,802037e2 <_ZN95_$LT$alloc..collections..btree..map..BTreeMap$LT$K$C$V$GT$$u20$as$u20$core..ops..drop..Drop$GT$4drop17hdc4487872ad95ec0E+0xce>
    80203804:	12000593          	li	a1,288
    80203808:	bfe9                	j	802037e2 <_ZN95_$LT$alloc..collections..btree..map..BTreeMap$LT$K$C$V$GT$$u20$as$u20$core..ops..drop..Drop$GT$4drop17hdc4487872ad95ec0E+0xce>
    8020380a:	6b46                	ld	s6,80(sp)
    8020380c:	6ae6                	ld	s5,88(sp)
    8020380e:	7a06                	ld	s4,96(sp)
    80203810:	79a6                	ld	s3,104(sp)
    80203812:	7946                	ld	s2,112(sp)
    80203814:	74e6                	ld	s1,120(sp)
    80203816:	640a                	ld	s0,128(sp)
    80203818:	60aa                	ld	ra,136(sp)
    8020381a:	6149                	addi	sp,sp,144
    8020381c:	8082                	ret

000000008020381e <.LBB9_20>:
    8020381e:	0000e517          	auipc	a0,0xe
    80203822:	8e250513          	addi	a0,a0,-1822 # 80211100 <.Lanon.0e146a1aea7c7f9de08538e159dfbefd.2>

0000000080203826 <.LBB9_21>:
    80203826:	0000e617          	auipc	a2,0xe
    8020382a:	8c260613          	addi	a2,a2,-1854 # 802110e8 <.Lanon.0e146a1aea7c7f9de08538e159dfbefd.1>
    8020382e:	02b00593          	li	a1,43
    80203832:	00009097          	auipc	ra,0x9
    80203836:	23c080e7          	jalr	572(ra) # 8020ca6e <_ZN4core9panicking5panic17h4214b4eed8d3f37fE>
	...

000000008020383c <rust_oom>:
    8020383c:	711d                	addi	sp,sp,-96
    8020383e:	ec86                	sd	ra,88(sp)
    80203840:	e8a2                	sd	s0,80(sp)
    80203842:	1080                	addi	s0,sp,96
    80203844:	faa43023          	sd	a0,-96(s0)
    80203848:	fab43423          	sd	a1,-88(s0)
    8020384c:	fa040513          	addi	a0,s0,-96
    80203850:	fea43023          	sd	a0,-32(s0)

0000000080203854 <.LBB19_1>:
    80203854:	0000c517          	auipc	a0,0xc
    80203858:	53850513          	addi	a0,a0,1336 # 8020fd8c <_ZN64_$LT$core..alloc..layout..Layout$u20$as$u20$core..fmt..Debug$GT$3fmt17h0283edf57016c8a1E>
    8020385c:	fea43423          	sd	a0,-24(s0)

0000000080203860 <.LBB19_2>:
    80203860:	0000e517          	auipc	a0,0xe
    80203864:	92050513          	addi	a0,a0,-1760 # 80211180 <.Lanon.0e146a1aea7c7f9de08538e159dfbefd.26>
    80203868:	faa43823          	sd	a0,-80(s0)
    8020386c:	4505                	li	a0,1
    8020386e:	faa43c23          	sd	a0,-72(s0)
    80203872:	fc043023          	sd	zero,-64(s0)
    80203876:	fe040593          	addi	a1,s0,-32
    8020387a:	fcb43823          	sd	a1,-48(s0)
    8020387e:	fca43c23          	sd	a0,-40(s0)

0000000080203882 <.LBB19_3>:
    80203882:	0000e597          	auipc	a1,0xe
    80203886:	92658593          	addi	a1,a1,-1754 # 802111a8 <.Lanon.0e146a1aea7c7f9de08538e159dfbefd.28>
    8020388a:	fb040513          	addi	a0,s0,-80
    8020388e:	00009097          	auipc	ra,0x9
    80203892:	24c080e7          	jalr	588(ra) # 8020cada <_ZN4core9panicking9panic_fmt17ha4e041b5d1f17023E>
	...

0000000080203898 <_ZN95_$LT$os..drivers..block..virtio_blk..VirtIOBlock$u20$as$u20$easy_fs..block_dev..BlockDevice$GT$10read_block17h57fa7a6a5a50f282E>:
    80203898:	7179                	addi	sp,sp,-48
    8020389a:	f406                	sd	ra,40(sp)
    8020389c:	f022                	sd	s0,32(sp)
    8020389e:	ec26                	sd	s1,24(sp)
    802038a0:	e84a                	sd	s2,16(sp)
    802038a2:	1800                	addi	s0,sp,48
    802038a4:	892a                	mv	s2,a0
    802038a6:	4505                	li	a0,1
    802038a8:	00a934af          	amoadd.d	s1,a0,(s2)
    802038ac:	00893503          	ld	a0,8(s2)
    802038b0:	0230000f          	fence	r,rw
    802038b4:	fe951ce3          	bne	a0,s1,802038ac <_ZN95_$LT$os..drivers..block..virtio_blk..VirtIOBlock$u20$as$u20$easy_fs..block_dev..BlockDevice$GT$10read_block17h57fa7a6a5a50f282E+0x14>
    802038b8:	01090513          	addi	a0,s2,16
    802038bc:	00005097          	auipc	ra,0x5
    802038c0:	64c080e7          	jalr	1612(ra) # 80208f08 <_ZN14virtio_drivers3blk9VirtIOBlk10read_block17hcd747bcce202dd4dE>
    802038c4:	0ff57513          	andi	a0,a0,255
    802038c8:	4599                	li	a1,6
    802038ca:	00b51e63          	bne	a0,a1,802038e6 <_ZN95_$LT$os..drivers..block..virtio_blk..VirtIOBlock$u20$as$u20$easy_fs..block_dev..BlockDevice$GT$10read_block17h57fa7a6a5a50f282E+0x4e>
    802038ce:	00148513          	addi	a0,s1,1
    802038d2:	0310000f          	fence	rw,w
    802038d6:	00a93423          	sd	a0,8(s2)
    802038da:	6942                	ld	s2,16(sp)
    802038dc:	64e2                	ld	s1,24(sp)
    802038de:	7402                	ld	s0,32(sp)
    802038e0:	70a2                	ld	ra,40(sp)
    802038e2:	6145                	addi	sp,sp,48
    802038e4:	8082                	ret
    802038e6:	fca40fa3          	sb	a0,-33(s0)

00000000802038ea <.LBB27_5>:
    802038ea:	0000e517          	auipc	a0,0xe
    802038ee:	94650513          	addi	a0,a0,-1722 # 80211230 <.Lanon.0e146a1aea7c7f9de08538e159dfbefd.40>

00000000802038f2 <.LBB27_6>:
    802038f2:	0000e697          	auipc	a3,0xe
    802038f6:	83e68693          	addi	a3,a3,-1986 # 80211130 <anon.0e146a1aea7c7f9de08538e159dfbefd.3.llvm.2513489228613536760>

00000000802038fa <.LBB27_7>:
    802038fa:	0000e717          	auipc	a4,0xe
    802038fe:	97670713          	addi	a4,a4,-1674 # 80211270 <.Lanon.0e146a1aea7c7f9de08538e159dfbefd.42>
    80203902:	fdf40613          	addi	a2,s0,-33
    80203906:	45f1                	li	a1,28
    80203908:	00009097          	auipc	ra,0x9
    8020390c:	106080e7          	jalr	262(ra) # 8020ca0e <_ZN4core6option18expect_none_failed17hf4b8b266798017eaE>
	...

0000000080203912 <_ZN95_$LT$os..drivers..block..virtio_blk..VirtIOBlock$u20$as$u20$easy_fs..block_dev..BlockDevice$GT$11write_block17h2277727a82a7d96bE>:
    80203912:	7179                	addi	sp,sp,-48
    80203914:	f406                	sd	ra,40(sp)
    80203916:	f022                	sd	s0,32(sp)
    80203918:	ec26                	sd	s1,24(sp)
    8020391a:	e84a                	sd	s2,16(sp)
    8020391c:	1800                	addi	s0,sp,48
    8020391e:	892a                	mv	s2,a0
    80203920:	4505                	li	a0,1
    80203922:	00a934af          	amoadd.d	s1,a0,(s2)
    80203926:	00893503          	ld	a0,8(s2)
    8020392a:	0230000f          	fence	r,rw
    8020392e:	fe951ce3          	bne	a0,s1,80203926 <_ZN95_$LT$os..drivers..block..virtio_blk..VirtIOBlock$u20$as$u20$easy_fs..block_dev..BlockDevice$GT$11write_block17h2277727a82a7d96bE+0x14>
    80203932:	01090513          	addi	a0,s2,16
    80203936:	00005097          	auipc	ra,0x5
    8020393a:	6f4080e7          	jalr	1780(ra) # 8020902a <_ZN14virtio_drivers3blk9VirtIOBlk11write_block17h689bf8df112125c0E>
    8020393e:	0ff57513          	andi	a0,a0,255
    80203942:	4599                	li	a1,6
    80203944:	00b51e63          	bne	a0,a1,80203960 <_ZN95_$LT$os..drivers..block..virtio_blk..VirtIOBlock$u20$as$u20$easy_fs..block_dev..BlockDevice$GT$11write_block17h2277727a82a7d96bE+0x4e>
    80203948:	00148513          	addi	a0,s1,1
    8020394c:	0310000f          	fence	rw,w
    80203950:	00a93423          	sd	a0,8(s2)
    80203954:	6942                	ld	s2,16(sp)
    80203956:	64e2                	ld	s1,24(sp)
    80203958:	7402                	ld	s0,32(sp)
    8020395a:	70a2                	ld	ra,40(sp)
    8020395c:	6145                	addi	sp,sp,48
    8020395e:	8082                	ret
    80203960:	fca40fa3          	sb	a0,-33(s0)

0000000080203964 <.LBB28_5>:
    80203964:	0000e517          	auipc	a0,0xe
    80203968:	92450513          	addi	a0,a0,-1756 # 80211288 <.Lanon.0e146a1aea7c7f9de08538e159dfbefd.43>

000000008020396c <.LBB28_6>:
    8020396c:	0000d697          	auipc	a3,0xd
    80203970:	7c468693          	addi	a3,a3,1988 # 80211130 <anon.0e146a1aea7c7f9de08538e159dfbefd.3.llvm.2513489228613536760>

0000000080203974 <.LBB28_7>:
    80203974:	0000e717          	auipc	a4,0xe
    80203978:	93470713          	addi	a4,a4,-1740 # 802112a8 <.Lanon.0e146a1aea7c7f9de08538e159dfbefd.44>
    8020397c:	fdf40613          	addi	a2,s0,-33
    80203980:	45f1                	li	a1,28
    80203982:	00009097          	auipc	ra,0x9
    80203986:	08c080e7          	jalr	140(ra) # 8020ca0e <_ZN4core6option18expect_none_failed17hf4b8b266798017eaE>
	...

000000008020398c <virtio_dma_alloc>:
    8020398c:	7131                	addi	sp,sp,-192
    8020398e:	fd06                	sd	ra,184(sp)
    80203990:	f922                	sd	s0,176(sp)
    80203992:	f526                	sd	s1,168(sp)
    80203994:	f14a                	sd	s2,160(sp)
    80203996:	ed4e                	sd	s3,152(sp)
    80203998:	e952                	sd	s4,144(sp)
    8020399a:	e556                	sd	s5,136(sp)
    8020399c:	e15a                	sd	s6,128(sp)
    8020399e:	fcde                	sd	s7,120(sp)
    802039a0:	f8e2                	sd	s8,112(sp)
    802039a2:	0180                	addi	s0,sp,192
    802039a4:	c959                	beqz	a0,80203a3a <.LBB30_16+0x8e>
    802039a6:	892a                	mv	s2,a0
    802039a8:	4481                	li	s1,0
    802039aa:	4a01                	li	s4,0

00000000802039ac <.LBB30_16>:
    802039ac:	00223997          	auipc	s3,0x223
    802039b0:	79c98993          	addi	s3,s3,1948 # 80427148 <_ZN88_$LT$os..drivers..block..virtio_blk..QUEUE_FRAMES$u20$as$u20$core..ops..deref..Deref$GT$5deref11__stability4LAZY17h5bb5b3cfd84ab277E>
    802039b4:	4a85                	li	s5,1
    802039b6:	a00d                	j	802039d8 <.LBB30_16+0x2c>
    802039b8:	6888                	ld	a0,16(s1)
    802039ba:	058e                	slli	a1,a1,0x3
    802039bc:	952e                	add	a0,a0,a1
    802039be:	01853023          	sd	s8,0(a0)
    802039c2:	7088                	ld	a0,32(s1)
    802039c4:	0505                	addi	a0,a0,1
    802039c6:	f088                	sd	a0,32(s1)
    802039c8:	001b8513          	addi	a0,s7,1
    802039cc:	0310000f          	fence	rw,w
    802039d0:	e488                	sd	a0,8(s1)
    802039d2:	84da                	mv	s1,s6
    802039d4:	072a0063          	beq	s4,s2,80203a34 <.LBB30_16+0x88>
    802039d8:	00001097          	auipc	ra,0x1
    802039dc:	0bc080e7          	jalr	188(ra) # 80204a94 <_ZN2os2mm15frame_allocator11frame_alloc17ha7fa5a63181a930bE>
    802039e0:	c935                	beqz	a0,80203a54 <.LBB30_17>
    802039e2:	f4b43023          	sd	a1,-192(s0)
    802039e6:	8b2e                	mv	s6,a1
    802039e8:	000a0363          	beqz	s4,802039ee <.LBB30_16+0x42>
    802039ec:	8b26                	mv	s6,s1
    802039ee:	014b0533          	add	a0,s6,s4
    802039f2:	f4a43423          	sd	a0,-184(s0)
    802039f6:	06b51e63          	bne	a0,a1,80203a72 <.LBB30_18+0x16>
    802039fa:	0a05                	addi	s4,s4,1
    802039fc:	854e                	mv	a0,s3
    802039fe:	00000097          	auipc	ra,0x0
    80203a02:	7e0080e7          	jalr	2016(ra) # 802041de <_ZN4spin4once13Once$LT$T$GT$9call_once17h3066fe8e558c7af5E>
    80203a06:	84aa                	mv	s1,a0
    80203a08:	01553baf          	amoadd.d	s7,s5,(a0)
    80203a0c:	6488                	ld	a0,8(s1)
    80203a0e:	0230000f          	fence	r,rw
    80203a12:	ff751de3          	bne	a0,s7,80203a0c <.LBB30_16+0x60>
    80203a16:	708c                	ld	a1,32(s1)
    80203a18:	6c88                	ld	a0,24(s1)
    80203a1a:	f4043c03          	ld	s8,-192(s0)
    80203a1e:	f8a59de3          	bne	a1,a0,802039b8 <.LBB30_16+0xc>
    80203a22:	01048513          	addi	a0,s1,16
    80203a26:	4605                	li	a2,1
    80203a28:	00000097          	auipc	ra,0x0
    80203a2c:	468080e7          	jalr	1128(ra) # 80203e90 <_ZN5alloc7raw_vec19RawVec$LT$T$C$A$GT$7reserve17h60f035b4ed2cf83dE>
    80203a30:	708c                	ld	a1,32(s1)
    80203a32:	b759                	j	802039b8 <.LBB30_16+0xc>
    80203a34:	00cb1513          	slli	a0,s6,0xc
    80203a38:	a011                	j	80203a3c <.LBB30_16+0x90>
    80203a3a:	4501                	li	a0,0
    80203a3c:	7c46                	ld	s8,112(sp)
    80203a3e:	7be6                	ld	s7,120(sp)
    80203a40:	6b0a                	ld	s6,128(sp)
    80203a42:	6aaa                	ld	s5,136(sp)
    80203a44:	6a4a                	ld	s4,144(sp)
    80203a46:	69ea                	ld	s3,152(sp)
    80203a48:	790a                	ld	s2,160(sp)
    80203a4a:	74aa                	ld	s1,168(sp)
    80203a4c:	744a                	ld	s0,176(sp)
    80203a4e:	70ea                	ld	ra,184(sp)
    80203a50:	6129                	addi	sp,sp,192
    80203a52:	8082                	ret

0000000080203a54 <.LBB30_17>:
    80203a54:	0000d517          	auipc	a0,0xd
    80203a58:	6ac50513          	addi	a0,a0,1708 # 80211100 <.Lanon.0e146a1aea7c7f9de08538e159dfbefd.2>

0000000080203a5c <.LBB30_18>:
    80203a5c:	0000e617          	auipc	a2,0xe
    80203a60:	87c60613          	addi	a2,a2,-1924 # 802112d8 <.Lanon.0e146a1aea7c7f9de08538e159dfbefd.46>
    80203a64:	02b00593          	li	a1,43
    80203a68:	00009097          	auipc	ra,0x9
    80203a6c:	006080e7          	jalr	6(ra) # 8020ca6e <_ZN4core9panicking5panic17h4214b4eed8d3f37fE>
    80203a70:	0000                	unimp
    80203a72:	f4040513          	addi	a0,s0,-192
    80203a76:	faa43023          	sd	a0,-96(s0)
    80203a7a:	f4840513          	addi	a0,s0,-184
    80203a7e:	faa43423          	sd	a0,-88(s0)
    80203a82:	fa040513          	addi	a0,s0,-96
    80203a86:	f8a43023          	sd	a0,-128(s0)

0000000080203a8a <.LBB30_19>:
    80203a8a:	00000517          	auipc	a0,0x0
    80203a8e:	a1850513          	addi	a0,a0,-1512 # 802034a2 <_ZN42_$LT$$RF$T$u20$as$u20$core..fmt..Debug$GT$3fmt17h2738cfdee3e896f9E>
    80203a92:	f8a43423          	sd	a0,-120(s0)
    80203a96:	fa840593          	addi	a1,s0,-88
    80203a9a:	f8b43823          	sd	a1,-112(s0)
    80203a9e:	f8a43c23          	sd	a0,-104(s0)

0000000080203aa2 <.LBB30_20>:
    80203aa2:	0000d517          	auipc	a0,0xd
    80203aa6:	75e50513          	addi	a0,a0,1886 # 80211200 <.Lanon.0e146a1aea7c7f9de08538e159dfbefd.37>
    80203aaa:	f4a43823          	sd	a0,-176(s0)
    80203aae:	450d                	li	a0,3
    80203ab0:	f4a43c23          	sd	a0,-168(s0)
    80203ab4:	f6043023          	sd	zero,-160(s0)
    80203ab8:	f8040513          	addi	a0,s0,-128
    80203abc:	f6a43823          	sd	a0,-144(s0)
    80203ac0:	4509                	li	a0,2
    80203ac2:	f6a43c23          	sd	a0,-136(s0)

0000000080203ac6 <.LBB30_21>:
    80203ac6:	0000e597          	auipc	a1,0xe
    80203aca:	82a58593          	addi	a1,a1,-2006 # 802112f0 <.Lanon.0e146a1aea7c7f9de08538e159dfbefd.47>
    80203ace:	f5040513          	addi	a0,s0,-176
    80203ad2:	00009097          	auipc	ra,0x9
    80203ad6:	008080e7          	jalr	8(ra) # 8020cada <_ZN4core9panicking9panic_fmt17ha4e041b5d1f17023E>
	...

0000000080203adc <virtio_dma_dealloc>:
    80203adc:	7175                	addi	sp,sp,-144
    80203ade:	e506                	sd	ra,136(sp)
    80203ae0:	e122                	sd	s0,128(sp)
    80203ae2:	fca6                	sd	s1,120(sp)
    80203ae4:	f8ca                	sd	s2,112(sp)
    80203ae6:	0900                	addi	s0,sp,144
    80203ae8:	892e                	mv	s2,a1
    80203aea:	6585                	lui	a1,0x1
    80203aec:	35fd                	addiw	a1,a1,-1
    80203aee:	8de9                	and	a1,a1,a0
    80203af0:	f6b43c23          	sd	a1,-136(s0)
    80203af4:	e58d                	bnez	a1,80203b1e <virtio_dma_dealloc+0x42>
    80203af6:	00090d63          	beqz	s2,80203b10 <virtio_dma_dealloc+0x34>
    80203afa:	00c55493          	srli	s1,a0,0xc
    80203afe:	8526                	mv	a0,s1
    80203b00:	00001097          	auipc	ra,0x1
    80203b04:	0f0080e7          	jalr	240(ra) # 80204bf0 <_ZN2os2mm15frame_allocator13frame_dealloc17h4828e963a0fceefbE>
    80203b08:	197d                	addi	s2,s2,-1
    80203b0a:	0485                	addi	s1,s1,1
    80203b0c:	fe0919e3          	bnez	s2,80203afe <virtio_dma_dealloc+0x22>
    80203b10:	4501                	li	a0,0
    80203b12:	7946                	ld	s2,112(sp)
    80203b14:	74e6                	ld	s1,120(sp)
    80203b16:	640a                	ld	s0,128(sp)
    80203b18:	60aa                	ld	ra,136(sp)
    80203b1a:	6149                	addi	sp,sp,144
    80203b1c:	8082                	ret
    80203b1e:	f7840513          	addi	a0,s0,-136
    80203b22:	fca43823          	sd	a0,-48(s0)

0000000080203b26 <.LBB31_6>:
    80203b26:	0000d517          	auipc	a0,0xd
    80203b2a:	41a50513          	addi	a0,a0,1050 # 80210f40 <anon.ddabf61bdaac86f64641ec60e3e20b8f.9.llvm.5641346452209144398>
    80203b2e:	fca43c23          	sd	a0,-40(s0)
    80203b32:	fd040513          	addi	a0,s0,-48
    80203b36:	faa43823          	sd	a0,-80(s0)

0000000080203b3a <.LBB31_7>:
    80203b3a:	00000517          	auipc	a0,0x0
    80203b3e:	96850513          	addi	a0,a0,-1688 # 802034a2 <_ZN42_$LT$$RF$T$u20$as$u20$core..fmt..Debug$GT$3fmt17h2738cfdee3e896f9E>
    80203b42:	faa43c23          	sd	a0,-72(s0)
    80203b46:	fd840593          	addi	a1,s0,-40
    80203b4a:	fcb43023          	sd	a1,-64(s0)
    80203b4e:	fca43423          	sd	a0,-56(s0)

0000000080203b52 <.LBB31_8>:
    80203b52:	0000d517          	auipc	a0,0xd
    80203b56:	44e50513          	addi	a0,a0,1102 # 80210fa0 <anon.ddabf61bdaac86f64641ec60e3e20b8f.13.llvm.5641346452209144398>
    80203b5a:	f8a43023          	sd	a0,-128(s0)
    80203b5e:	450d                	li	a0,3
    80203b60:	f8a43423          	sd	a0,-120(s0)
    80203b64:	f8043823          	sd	zero,-112(s0)
    80203b68:	fb040513          	addi	a0,s0,-80
    80203b6c:	faa43023          	sd	a0,-96(s0)
    80203b70:	4509                	li	a0,2
    80203b72:	faa43423          	sd	a0,-88(s0)

0000000080203b76 <.LBB31_9>:
    80203b76:	0000d597          	auipc	a1,0xd
    80203b7a:	47258593          	addi	a1,a1,1138 # 80210fe8 <anon.ddabf61bdaac86f64641ec60e3e20b8f.16.llvm.5641346452209144398>
    80203b7e:	f8040513          	addi	a0,s0,-128
    80203b82:	00009097          	auipc	ra,0x9
    80203b86:	f58080e7          	jalr	-168(ra) # 8020cada <_ZN4core9panicking9panic_fmt17ha4e041b5d1f17023E>
	...

0000000080203b8c <virtio_phys_to_virt>:
    80203b8c:	1141                	addi	sp,sp,-16
    80203b8e:	e406                	sd	ra,8(sp)
    80203b90:	e022                	sd	s0,0(sp)
    80203b92:	0800                	addi	s0,sp,16
    80203b94:	6402                	ld	s0,0(sp)
    80203b96:	60a2                	ld	ra,8(sp)
    80203b98:	0141                	addi	sp,sp,16
    80203b9a:	8082                	ret

0000000080203b9c <virtio_virt_to_phys>:
    80203b9c:	7119                	addi	sp,sp,-128
    80203b9e:	fc86                	sd	ra,120(sp)
    80203ba0:	f8a2                	sd	s0,112(sp)
    80203ba2:	f4a6                	sd	s1,104(sp)
    80203ba4:	f0ca                	sd	s2,96(sp)
    80203ba6:	ecce                	sd	s3,88(sp)
    80203ba8:	e8d2                	sd	s4,80(sp)
    80203baa:	0100                	addi	s0,sp,128
    80203bac:	892a                	mv	s2,a0

0000000080203bae <.LBB33_13>:
    80203bae:	00023517          	auipc	a0,0x23
    80203bb2:	45250513          	addi	a0,a0,1106 # 80227000 <boot_stack_top>
    80203bb6:	00001097          	auipc	ra,0x1
    80203bba:	870080e7          	jalr	-1936(ra) # 80204426 <_ZN4spin4once13Once$LT$T$GT$9call_once17h98b26a3fa58e103eE>
    80203bbe:	00053983          	ld	s3,0(a0)
    80203bc2:	01098513          	addi	a0,s3,16
    80203bc6:	4585                	li	a1,1
    80203bc8:	00b53a2f          	amoadd.d	s4,a1,(a0)
    80203bcc:	0189b503          	ld	a0,24(s3)
    80203bd0:	0230000f          	fence	r,rw
    80203bd4:	ff451ce3          	bne	a0,s4,80203bcc <.LBB33_13+0x1e>

0000000080203bd8 <.LBB33_14>:
    80203bd8:	00223517          	auipc	a0,0x223
    80203bdc:	65050513          	addi	a0,a0,1616 # 80427228 <_ZN3log20MAX_LOG_LEVEL_FILTER17h509cbb1a0757769dE>
    80203be0:	610c                	ld	a1,0(a0)
    80203be2:	557d                	li	a0,-1
    80203be4:	4611                	li	a2,4
    80203be6:	157e                	slli	a0,a0,0x3f
    80203be8:	06b67563          	bgeu	a2,a1,80203c52 <.LBB33_18+0x18>
    80203bec:	0209b583          	ld	a1,32(s3)
    80203bf0:	00a5e4b3          	or	s1,a1,a0
    80203bf4:	fc943423          	sd	s1,-56(s0)
    80203bf8:	fc840513          	addi	a0,s0,-56
    80203bfc:	faa43c23          	sd	a0,-72(s0)

0000000080203c00 <.LBB33_15>:
    80203c00:	0000b517          	auipc	a0,0xb
    80203c04:	31450513          	addi	a0,a0,788 # 8020ef14 <_ZN4core3fmt3num53_$LT$impl$u20$core..fmt..LowerHex$u20$for$u20$i64$GT$3fmt17he21e11f173f31e15E>
    80203c08:	fca43023          	sd	a0,-64(s0)

0000000080203c0c <.LBB33_16>:
    80203c0c:	0000d517          	auipc	a0,0xd
    80203c10:	e1450513          	addi	a0,a0,-492 # 80210a20 <anon.f2b1b5a509bdedcdd67207527f4f0965.33.llvm.1283535708719223612>
    80203c14:	f8a43423          	sd	a0,-120(s0)
    80203c18:	4505                	li	a0,1
    80203c1a:	f8a43823          	sd	a0,-112(s0)

0000000080203c1e <.LBB33_17>:
    80203c1e:	0000d597          	auipc	a1,0xd
    80203c22:	e1258593          	addi	a1,a1,-494 # 80210a30 <anon.f2b1b5a509bdedcdd67207527f4f0965.34.llvm.1283535708719223612>
    80203c26:	f8b43c23          	sd	a1,-104(s0)
    80203c2a:	faa43023          	sd	a0,-96(s0)
    80203c2e:	fb840593          	addi	a1,s0,-72
    80203c32:	fab43423          	sd	a1,-88(s0)
    80203c36:	faa43823          	sd	a0,-80(s0)

0000000080203c3a <.LBB33_18>:
    80203c3a:	0000d617          	auipc	a2,0xd
    80203c3e:	e2e60613          	addi	a2,a2,-466 # 80210a68 <anon.f2b1b5a509bdedcdd67207527f4f0965.35.llvm.1283535708719223612>
    80203c42:	f8840513          	addi	a0,s0,-120
    80203c46:	4595                	li	a1,5
    80203c48:	00009097          	auipc	ra,0x9
    80203c4c:	bc8080e7          	jalr	-1080(ra) # 8020c810 <_ZN3log17__private_api_log17hba2caac2d4fb19bcE>
    80203c50:	a029                	j	80203c5a <.LBB33_18+0x20>
    80203c52:	0209b583          	ld	a1,32(s3)
    80203c56:	00a5e4b3          	or	s1,a1,a0
    80203c5a:	4505                	li	a0,1
    80203c5c:	1532                	slli	a0,a0,0x2c
    80203c5e:	157d                	addi	a0,a0,-1
    80203c60:	00c51593          	slli	a1,a0,0xc
    80203c64:	001a0513          	addi	a0,s4,1
    80203c68:	0310000f          	fence	rw,w
    80203c6c:	00a9bc23          	sd	a0,24(s3)
    80203c70:	00c95513          	srli	a0,s2,0xc
    80203c74:	1ff57513          	andi	a0,a0,511
    80203c78:	f8a43c23          	sd	a0,-104(s0)
    80203c7c:	01595513          	srli	a0,s2,0x15
    80203c80:	1ff57513          	andi	a0,a0,511
    80203c84:	f8a43823          	sd	a0,-112(s0)
    80203c88:	01e95513          	srli	a0,s2,0x1e
    80203c8c:	1ff57513          	andi	a0,a0,511
    80203c90:	f8a43423          	sd	a0,-120(s0)
    80203c94:	46a1                	li	a3,8
    80203c96:	02000613          	li	a2,32
    80203c9a:	f8840813          	addi	a6,s0,-120
    80203c9e:	20000793          	li	a5,512
    80203ca2:	00c49713          	slli	a4,s1,0xc
    80203ca6:	00b774b3          	and	s1,a4,a1
    80203caa:	050e                	slli	a0,a0,0x3
    80203cac:	00868713          	addi	a4,a3,8
    80203cb0:	9526                	add	a0,a0,s1
    80203cb2:	02c70863          	beq	a4,a2,80203ce2 <.LBB33_19+0x16>
    80203cb6:	6104                	ld	s1,0(a0)
    80203cb8:	0014f513          	andi	a0,s1,1
    80203cbc:	c521                	beqz	a0,80203d04 <.LBB33_20>
    80203cbe:	00d80533          	add	a0,a6,a3
    80203cc2:	6108                	ld	a0,0(a0)
    80203cc4:	80a9                	srli	s1,s1,0xa
    80203cc6:	86ba                	mv	a3,a4
    80203cc8:	fcf56de3          	bltu	a0,a5,80203ca2 <.LBB33_18+0x68>

0000000080203ccc <.LBB33_19>:
    80203ccc:	0000d617          	auipc	a2,0xd
    80203cd0:	b1460613          	addi	a2,a2,-1260 # 802107e0 <anon.f2b1b5a509bdedcdd67207527f4f0965.13.llvm.1283535708719223612>
    80203cd4:	20000593          	li	a1,512
    80203cd8:	00009097          	auipc	ra,0x9
    80203cdc:	dc2080e7          	jalr	-574(ra) # 8020ca9a <_ZN4core9panicking18panic_bounds_check17ha760e6d8204f3836E>
    80203ce0:	0000                	unimp
    80203ce2:	c08d                	beqz	s1,80203d04 <.LBB33_20>
    80203ce4:	6108                	ld	a0,0(a0)
    80203ce6:	050a                	slli	a0,a0,0x2
    80203ce8:	8d6d                	and	a0,a0,a1
    80203cea:	6585                	lui	a1,0x1
    80203cec:	35fd                	addiw	a1,a1,-1
    80203cee:	00b975b3          	and	a1,s2,a1
    80203cf2:	8d4d                	or	a0,a0,a1
    80203cf4:	6a46                	ld	s4,80(sp)
    80203cf6:	69e6                	ld	s3,88(sp)
    80203cf8:	7906                	ld	s2,96(sp)
    80203cfa:	74a6                	ld	s1,104(sp)
    80203cfc:	7446                	ld	s0,112(sp)
    80203cfe:	70e6                	ld	ra,120(sp)
    80203d00:	6109                	addi	sp,sp,128
    80203d02:	8082                	ret

0000000080203d04 <.LBB33_20>:
    80203d04:	0000d517          	auipc	a0,0xd
    80203d08:	3fc50513          	addi	a0,a0,1020 # 80211100 <.Lanon.0e146a1aea7c7f9de08538e159dfbefd.2>

0000000080203d0c <.LBB33_21>:
    80203d0c:	0000d617          	auipc	a2,0xd
    80203d10:	5fc60613          	addi	a2,a2,1532 # 80211308 <.Lanon.0e146a1aea7c7f9de08538e159dfbefd.48>
    80203d14:	02b00593          	li	a1,43
    80203d18:	00009097          	auipc	ra,0x9
    80203d1c:	d56080e7          	jalr	-682(ra) # 8020ca6e <_ZN4core9panicking5panic17h4214b4eed8d3f37fE>
	...

0000000080203d22 <__rg_alloc>:
    80203d22:	1141                	addi	sp,sp,-16
    80203d24:	e406                	sd	ra,8(sp)
    80203d26:	e022                	sd	s0,0(sp)
    80203d28:	0800                	addi	s0,sp,16

0000000080203d2a <.LBB34_1>:
    80203d2a:	00223617          	auipc	a2,0x223
    80203d2e:	2f660613          	addi	a2,a2,758 # 80427020 <_ZN2os2mm14heap_allocator14HEAP_ALLOCATOR17h1afcda432622910bE.llvm.2513489228613536760>
    80203d32:	86ae                	mv	a3,a1
    80203d34:	85aa                	mv	a1,a0
    80203d36:	8532                	mv	a0,a2
    80203d38:	8636                	mv	a2,a3
    80203d3a:	6402                	ld	s0,0(sp)
    80203d3c:	60a2                	ld	ra,8(sp)
    80203d3e:	0141                	addi	sp,sp,16
    80203d40:	00008317          	auipc	t1,0x8
    80203d44:	4a230067          	jr	1186(t1) # 8020c1e2 <_ZN87_$LT$buddy_system_allocator..LockedHeap$u20$as$u20$core..alloc..global..GlobalAlloc$GT$5alloc17h0b502810223d0774E>

0000000080203d48 <__rg_dealloc>:
    80203d48:	1141                	addi	sp,sp,-16
    80203d4a:	e406                	sd	ra,8(sp)
    80203d4c:	e022                	sd	s0,0(sp)
    80203d4e:	0800                	addi	s0,sp,16

0000000080203d50 <.LBB35_1>:
    80203d50:	00223697          	auipc	a3,0x223
    80203d54:	2d068693          	addi	a3,a3,720 # 80427020 <_ZN2os2mm14heap_allocator14HEAP_ALLOCATOR17h1afcda432622910bE.llvm.2513489228613536760>
    80203d58:	8732                	mv	a4,a2
    80203d5a:	862e                	mv	a2,a1
    80203d5c:	85aa                	mv	a1,a0
    80203d5e:	8536                	mv	a0,a3
    80203d60:	86ba                	mv	a3,a4
    80203d62:	6402                	ld	s0,0(sp)
    80203d64:	60a2                	ld	ra,8(sp)
    80203d66:	0141                	addi	sp,sp,16
    80203d68:	00008317          	auipc	t1,0x8
    80203d6c:	4be30067          	jr	1214(t1) # 8020c226 <_ZN87_$LT$buddy_system_allocator..LockedHeap$u20$as$u20$core..alloc..global..GlobalAlloc$GT$7dealloc17hbeaa7ce81ea34079E>

0000000080203d70 <__rg_realloc>:
    80203d70:	7139                	addi	sp,sp,-64
    80203d72:	fc06                	sd	ra,56(sp)
    80203d74:	f822                	sd	s0,48(sp)
    80203d76:	f426                	sd	s1,40(sp)
    80203d78:	f04a                	sd	s2,32(sp)
    80203d7a:	ec4e                	sd	s3,24(sp)
    80203d7c:	e852                	sd	s4,16(sp)
    80203d7e:	e456                	sd	s5,8(sp)
    80203d80:	0080                	addi	s0,sp,64
    80203d82:	84b6                	mv	s1,a3
    80203d84:	8932                	mv	s2,a2
    80203d86:	8a2e                	mv	s4,a1
    80203d88:	89aa                	mv	s3,a0

0000000080203d8a <.LBB36_5>:
    80203d8a:	00223517          	auipc	a0,0x223
    80203d8e:	29650513          	addi	a0,a0,662 # 80427020 <_ZN2os2mm14heap_allocator14HEAP_ALLOCATOR17h1afcda432622910bE.llvm.2513489228613536760>
    80203d92:	85b6                	mv	a1,a3
    80203d94:	00008097          	auipc	ra,0x8
    80203d98:	44e080e7          	jalr	1102(ra) # 8020c1e2 <_ZN87_$LT$buddy_system_allocator..LockedHeap$u20$as$u20$core..alloc..global..GlobalAlloc$GT$5alloc17h0b502810223d0774E>
    80203d9c:	8aaa                	mv	s5,a0
    80203d9e:	c515                	beqz	a0,80203dca <.LBB36_6+0x16>
    80203da0:	0144e363          	bltu	s1,s4,80203da6 <.LBB36_5+0x1c>
    80203da4:	84d2                	mv	s1,s4
    80203da6:	8556                	mv	a0,s5
    80203da8:	85ce                	mv	a1,s3
    80203daa:	8626                	mv	a2,s1
    80203dac:	0000c097          	auipc	ra,0xc
    80203db0:	09a080e7          	jalr	154(ra) # 8020fe46 <memcpy>

0000000080203db4 <.LBB36_6>:
    80203db4:	00223517          	auipc	a0,0x223
    80203db8:	26c50513          	addi	a0,a0,620 # 80427020 <_ZN2os2mm14heap_allocator14HEAP_ALLOCATOR17h1afcda432622910bE.llvm.2513489228613536760>
    80203dbc:	85ce                	mv	a1,s3
    80203dbe:	8652                	mv	a2,s4
    80203dc0:	86ca                	mv	a3,s2
    80203dc2:	00008097          	auipc	ra,0x8
    80203dc6:	464080e7          	jalr	1124(ra) # 8020c226 <_ZN87_$LT$buddy_system_allocator..LockedHeap$u20$as$u20$core..alloc..global..GlobalAlloc$GT$7dealloc17hbeaa7ce81ea34079E>
    80203dca:	8556                	mv	a0,s5
    80203dcc:	6aa2                	ld	s5,8(sp)
    80203dce:	6a42                	ld	s4,16(sp)
    80203dd0:	69e2                	ld	s3,24(sp)
    80203dd2:	7902                	ld	s2,32(sp)
    80203dd4:	74a2                	ld	s1,40(sp)
    80203dd6:	7442                	ld	s0,48(sp)
    80203dd8:	70e2                	ld	ra,56(sp)
    80203dda:	6121                	addi	sp,sp,64
    80203ddc:	8082                	ret

0000000080203dde <__rg_alloc_zeroed>:
    80203dde:	1101                	addi	sp,sp,-32
    80203de0:	ec06                	sd	ra,24(sp)
    80203de2:	e822                	sd	s0,16(sp)
    80203de4:	e426                	sd	s1,8(sp)
    80203de6:	e04a                	sd	s2,0(sp)
    80203de8:	1000                	addi	s0,sp,32
    80203dea:	862e                	mv	a2,a1
    80203dec:	892a                	mv	s2,a0

0000000080203dee <.LBB37_3>:
    80203dee:	00223517          	auipc	a0,0x223
    80203df2:	23250513          	addi	a0,a0,562 # 80427020 <_ZN2os2mm14heap_allocator14HEAP_ALLOCATOR17h1afcda432622910bE.llvm.2513489228613536760>
    80203df6:	85ca                	mv	a1,s2
    80203df8:	00008097          	auipc	ra,0x8
    80203dfc:	3ea080e7          	jalr	1002(ra) # 8020c1e2 <_ZN87_$LT$buddy_system_allocator..LockedHeap$u20$as$u20$core..alloc..global..GlobalAlloc$GT$5alloc17h0b502810223d0774E>
    80203e00:	84aa                	mv	s1,a0
    80203e02:	c901                	beqz	a0,80203e12 <.LBB37_3+0x24>
    80203e04:	8526                	mv	a0,s1
    80203e06:	4581                	li	a1,0
    80203e08:	864a                	mv	a2,s2
    80203e0a:	0000c097          	auipc	ra,0xc
    80203e0e:	08e080e7          	jalr	142(ra) # 8020fe98 <memset>
    80203e12:	8526                	mv	a0,s1
    80203e14:	6902                	ld	s2,0(sp)
    80203e16:	64a2                	ld	s1,8(sp)
    80203e18:	6442                	ld	s0,16(sp)
    80203e1a:	60e2                	ld	ra,24(sp)
    80203e1c:	6105                	addi	sp,sp,32
    80203e1e:	8082                	ret

0000000080203e20 <_ZN5alloc7raw_vec11finish_grow17hd3746b4140f93e21E.llvm.9303414590252793867>:
    80203e20:	7179                	addi	sp,sp,-48
    80203e22:	f406                	sd	ra,40(sp)
    80203e24:	f022                	sd	s0,32(sp)
    80203e26:	ec26                	sd	s1,24(sp)
    80203e28:	e84a                	sd	s2,16(sp)
    80203e2a:	e44e                	sd	s3,8(sp)
    80203e2c:	1800                	addi	s0,sp,48
    80203e2e:	84ae                	mv	s1,a1
    80203e30:	892a                	mv	s2,a0
    80203e32:	ce11                	beqz	a2,80203e4e <_ZN5alloc7raw_vec11finish_grow17hd3746b4140f93e21E.llvm.9303414590252793867+0x2e>
    80203e34:	89b2                	mv	s3,a2
    80203e36:	6288                	ld	a0,0(a3)
    80203e38:	c105                	beqz	a0,80203e58 <_ZN5alloc7raw_vec11finish_grow17hd3746b4140f93e21E.llvm.9303414590252793867+0x38>
    80203e3a:	668c                	ld	a1,8(a3)
    80203e3c:	cd91                	beqz	a1,80203e58 <_ZN5alloc7raw_vec11finish_grow17hd3746b4140f93e21E.llvm.9303414590252793867+0x38>
    80203e3e:	864e                	mv	a2,s3
    80203e40:	86a6                	mv	a3,s1
    80203e42:	00002097          	auipc	ra,0x2
    80203e46:	a14080e7          	jalr	-1516(ra) # 80205856 <__rust_realloc>
    80203e4a:	e50d                	bnez	a0,80203e74 <_ZN5alloc7raw_vec11finish_grow17hd3746b4140f93e21E.llvm.9303414590252793867+0x54>
    80203e4c:	a831                	j	80203e68 <_ZN5alloc7raw_vec11finish_grow17hd3746b4140f93e21E.llvm.9303414590252793867+0x48>
    80203e4e:	00993423          	sd	s1,8(s2)
    80203e52:	4585                	li	a1,1
    80203e54:	4481                	li	s1,0
    80203e56:	a015                	j	80203e7a <_ZN5alloc7raw_vec11finish_grow17hd3746b4140f93e21E.llvm.9303414590252793867+0x5a>
    80203e58:	cc89                	beqz	s1,80203e72 <_ZN5alloc7raw_vec11finish_grow17hd3746b4140f93e21E.llvm.9303414590252793867+0x52>
    80203e5a:	8526                	mv	a0,s1
    80203e5c:	85ce                	mv	a1,s3
    80203e5e:	00002097          	auipc	ra,0x2
    80203e62:	9e8080e7          	jalr	-1560(ra) # 80205846 <__rust_alloc>
    80203e66:	e519                	bnez	a0,80203e74 <_ZN5alloc7raw_vec11finish_grow17hd3746b4140f93e21E.llvm.9303414590252793867+0x54>
    80203e68:	00993423          	sd	s1,8(s2)
    80203e6c:	4585                	li	a1,1
    80203e6e:	84ce                	mv	s1,s3
    80203e70:	a029                	j	80203e7a <_ZN5alloc7raw_vec11finish_grow17hd3746b4140f93e21E.llvm.9303414590252793867+0x5a>
    80203e72:	854e                	mv	a0,s3
    80203e74:	4581                	li	a1,0
    80203e76:	00a93423          	sd	a0,8(s2)
    80203e7a:	00993823          	sd	s1,16(s2)
    80203e7e:	00b93023          	sd	a1,0(s2)
    80203e82:	69a2                	ld	s3,8(sp)
    80203e84:	6942                	ld	s2,16(sp)
    80203e86:	64e2                	ld	s1,24(sp)
    80203e88:	7402                	ld	s0,32(sp)
    80203e8a:	70a2                	ld	ra,40(sp)
    80203e8c:	6145                	addi	sp,sp,48
    80203e8e:	8082                	ret

0000000080203e90 <_ZN5alloc7raw_vec19RawVec$LT$T$C$A$GT$7reserve17h60f035b4ed2cf83dE>:
    80203e90:	715d                	addi	sp,sp,-80
    80203e92:	e486                	sd	ra,72(sp)
    80203e94:	e0a2                	sd	s0,64(sp)
    80203e96:	fc26                	sd	s1,56(sp)
    80203e98:	0880                	addi	s0,sp,80
    80203e9a:	84aa                	mv	s1,a0
    80203e9c:	6508                	ld	a0,8(a0)
    80203e9e:	40b506b3          	sub	a3,a0,a1
    80203ea2:	06c6fb63          	bgeu	a3,a2,80203f18 <_ZN5alloc7raw_vec19RawVec$LT$T$C$A$GT$7reserve17h60f035b4ed2cf83dE+0x88>
    80203ea6:	962e                	add	a2,a2,a1
    80203ea8:	06b66e63          	bltu	a2,a1,80203f24 <_ZN5alloc7raw_vec19RawVec$LT$T$C$A$GT$7reserve17h60f035b4ed2cf83dE+0x94>
    80203eac:	00151593          	slli	a1,a0,0x1
    80203eb0:	00b66363          	bltu	a2,a1,80203eb6 <_ZN5alloc7raw_vec19RawVec$LT$T$C$A$GT$7reserve17h60f035b4ed2cf83dE+0x26>
    80203eb4:	85b2                	mv	a1,a2
    80203eb6:	4611                	li	a2,4
    80203eb8:	00b66363          	bltu	a2,a1,80203ebe <_ZN5alloc7raw_vec19RawVec$LT$T$C$A$GT$7reserve17h60f035b4ed2cf83dE+0x2e>
    80203ebc:	4591                	li	a1,4
    80203ebe:	4605                	li	a2,1
    80203ec0:	1676                	slli	a2,a2,0x3d
    80203ec2:	167d                	addi	a2,a2,-1
    80203ec4:	8e6d                	and	a2,a2,a1
    80203ec6:	8e2d                	xor	a2,a2,a1
    80203ec8:	00c036b3          	snez	a3,a2
    80203ecc:	4601                	li	a2,0
    80203ece:	e291                	bnez	a3,80203ed2 <_ZN5alloc7raw_vec19RawVec$LT$T$C$A$GT$7reserve17h60f035b4ed2cf83dE+0x42>
    80203ed0:	4621                	li	a2,8
    80203ed2:	058e                	slli	a1,a1,0x3
    80203ed4:	c919                	beqz	a0,80203eea <_ZN5alloc7raw_vec19RawVec$LT$T$C$A$GT$7reserve17h60f035b4ed2cf83dE+0x5a>
    80203ed6:	6094                	ld	a3,0(s1)
    80203ed8:	050e                	slli	a0,a0,0x3
    80203eda:	fcd43823          	sd	a3,-48(s0)
    80203ede:	fca43c23          	sd	a0,-40(s0)
    80203ee2:	4521                	li	a0,8
    80203ee4:	fea43023          	sd	a0,-32(s0)
    80203ee8:	a019                	j	80203eee <_ZN5alloc7raw_vec19RawVec$LT$T$C$A$GT$7reserve17h60f035b4ed2cf83dE+0x5e>
    80203eea:	fc043823          	sd	zero,-48(s0)
    80203eee:	fb840513          	addi	a0,s0,-72
    80203ef2:	fd040693          	addi	a3,s0,-48
    80203ef6:	00000097          	auipc	ra,0x0
    80203efa:	f2a080e7          	jalr	-214(ra) # 80203e20 <_ZN5alloc7raw_vec11finish_grow17hd3746b4140f93e21E.llvm.9303414590252793867>
    80203efe:	fb843603          	ld	a2,-72(s0)
    80203f02:	fc043503          	ld	a0,-64(s0)
    80203f06:	fc843583          	ld	a1,-56(s0)
    80203f0a:	4685                	li	a3,1
    80203f0c:	00d60b63          	beq	a2,a3,80203f22 <_ZN5alloc7raw_vec19RawVec$LT$T$C$A$GT$7reserve17h60f035b4ed2cf83dE+0x92>
    80203f10:	e088                	sd	a0,0(s1)
    80203f12:	0035d513          	srli	a0,a1,0x3
    80203f16:	e488                	sd	a0,8(s1)
    80203f18:	74e2                	ld	s1,56(sp)
    80203f1a:	6406                	ld	s0,64(sp)
    80203f1c:	60a6                	ld	ra,72(sp)
    80203f1e:	6161                	addi	sp,sp,80
    80203f20:	8082                	ret
    80203f22:	e591                	bnez	a1,80203f2e <_ZN5alloc7raw_vec19RawVec$LT$T$C$A$GT$7reserve17h60f035b4ed2cf83dE+0x9e>
    80203f24:	00009097          	auipc	ra,0x9
    80203f28:	806080e7          	jalr	-2042(ra) # 8020c72a <_ZN5alloc7raw_vec17capacity_overflow17h81167f6233698fbeE>
    80203f2c:	0000                	unimp
    80203f2e:	00008097          	auipc	ra,0x8
    80203f32:	79e080e7          	jalr	1950(ra) # 8020c6cc <_ZN5alloc5alloc18handle_alloc_error17hd88389f3109c4dfdE>
	...

0000000080203f38 <_ZN5alloc7raw_vec19RawVec$LT$T$C$A$GT$7reserve17hcef46bfd9e2455d8E>:
    80203f38:	715d                	addi	sp,sp,-80
    80203f3a:	e486                	sd	ra,72(sp)
    80203f3c:	e0a2                	sd	s0,64(sp)
    80203f3e:	fc26                	sd	s1,56(sp)
    80203f40:	0880                	addi	s0,sp,80
    80203f42:	84aa                	mv	s1,a0
    80203f44:	6508                	ld	a0,8(a0)
    80203f46:	40b506b3          	sub	a3,a0,a1
    80203f4a:	08c6fc63          	bgeu	a3,a2,80203fe2 <_ZN5alloc7raw_vec19RawVec$LT$T$C$A$GT$7reserve17hcef46bfd9e2455d8E+0xaa>
    80203f4e:	962e                	add	a2,a2,a1
    80203f50:	08b66f63          	bltu	a2,a1,80203fee <_ZN5alloc7raw_vec19RawVec$LT$T$C$A$GT$7reserve17hcef46bfd9e2455d8E+0xb6>
    80203f54:	00151593          	slli	a1,a0,0x1
    80203f58:	00b66363          	bltu	a2,a1,80203f5e <_ZN5alloc7raw_vec19RawVec$LT$T$C$A$GT$7reserve17hcef46bfd9e2455d8E+0x26>
    80203f5c:	85b2                	mv	a1,a2
    80203f5e:	4611                	li	a2,4
    80203f60:	00b66363          	bltu	a2,a1,80203f66 <_ZN5alloc7raw_vec19RawVec$LT$T$C$A$GT$7reserve17hcef46bfd9e2455d8E+0x2e>
    80203f64:	4591                	li	a1,4
    80203f66:	03000693          	li	a3,48
    80203f6a:	02d5b633          	mulhu	a2,a1,a3
    80203f6e:	00c03733          	snez	a4,a2
    80203f72:	4601                	li	a2,0
    80203f74:	e311                	bnez	a4,80203f78 <_ZN5alloc7raw_vec19RawVec$LT$T$C$A$GT$7reserve17hcef46bfd9e2455d8E+0x40>
    80203f76:	4621                	li	a2,8
    80203f78:	02d585b3          	mul	a1,a1,a3
    80203f7c:	cd11                	beqz	a0,80203f98 <_ZN5alloc7raw_vec19RawVec$LT$T$C$A$GT$7reserve17hcef46bfd9e2455d8E+0x60>
    80203f7e:	6094                	ld	a3,0(s1)
    80203f80:	03000713          	li	a4,48
    80203f84:	02e50533          	mul	a0,a0,a4
    80203f88:	fcd43823          	sd	a3,-48(s0)
    80203f8c:	fca43c23          	sd	a0,-40(s0)
    80203f90:	4521                	li	a0,8
    80203f92:	fea43023          	sd	a0,-32(s0)
    80203f96:	a019                	j	80203f9c <_ZN5alloc7raw_vec19RawVec$LT$T$C$A$GT$7reserve17hcef46bfd9e2455d8E+0x64>
    80203f98:	fc043823          	sd	zero,-48(s0)
    80203f9c:	fb840513          	addi	a0,s0,-72
    80203fa0:	fd040693          	addi	a3,s0,-48
    80203fa4:	00000097          	auipc	ra,0x0
    80203fa8:	e7c080e7          	jalr	-388(ra) # 80203e20 <_ZN5alloc7raw_vec11finish_grow17hd3746b4140f93e21E.llvm.9303414590252793867>
    80203fac:	fb843603          	ld	a2,-72(s0)
    80203fb0:	fc043503          	ld	a0,-64(s0)
    80203fb4:	fc843583          	ld	a1,-56(s0)
    80203fb8:	4685                	li	a3,1
    80203fba:	02d60963          	beq	a2,a3,80203fec <_ZN5alloc7raw_vec19RawVec$LT$T$C$A$GT$7reserve17hcef46bfd9e2455d8E+0xb4>
    80203fbe:	e088                	sd	a0,0(s1)
    80203fc0:	faaab537          	lui	a0,0xfaaab
    80203fc4:	aab5051b          	addiw	a0,a0,-1365
    80203fc8:	0532                	slli	a0,a0,0xc
    80203fca:	aab50513          	addi	a0,a0,-1365 # fffffffffaaaaaab <ebss+0xffffffff7a682aab>
    80203fce:	0532                	slli	a0,a0,0xc
    80203fd0:	aab50513          	addi	a0,a0,-1365
    80203fd4:	0532                	slli	a0,a0,0xc
    80203fd6:	aab50513          	addi	a0,a0,-1365
    80203fda:	02a5b533          	mulhu	a0,a1,a0
    80203fde:	8115                	srli	a0,a0,0x5
    80203fe0:	e488                	sd	a0,8(s1)
    80203fe2:	74e2                	ld	s1,56(sp)
    80203fe4:	6406                	ld	s0,64(sp)
    80203fe6:	60a6                	ld	ra,72(sp)
    80203fe8:	6161                	addi	sp,sp,80
    80203fea:	8082                	ret
    80203fec:	e591                	bnez	a1,80203ff8 <_ZN5alloc7raw_vec19RawVec$LT$T$C$A$GT$7reserve17hcef46bfd9e2455d8E+0xc0>
    80203fee:	00008097          	auipc	ra,0x8
    80203ff2:	73c080e7          	jalr	1852(ra) # 8020c72a <_ZN5alloc7raw_vec17capacity_overflow17h81167f6233698fbeE>
    80203ff6:	0000                	unimp
    80203ff8:	00008097          	auipc	ra,0x8
    80203ffc:	6d4080e7          	jalr	1748(ra) # 8020c6cc <_ZN5alloc5alloc18handle_alloc_error17hd88389f3109c4dfdE>
	...

0000000080204002 <_ZN4core3ptr64drop_in_place$LT$os..drivers..block..virtio_blk..VirtIOBlock$GT$17h1858bbeee6e2e271E.llvm.6653314557508847139>:
    80204002:	1141                	addi	sp,sp,-16
    80204004:	e406                	sd	ra,8(sp)
    80204006:	e022                	sd	s0,0(sp)
    80204008:	0800                	addi	s0,sp,16
    8020400a:	0561                	addi	a0,a0,24
    8020400c:	6402                	ld	s0,0(sp)
    8020400e:	60a2                	ld	ra,8(sp)
    80204010:	0141                	addi	sp,sp,16
    80204012:	00006317          	auipc	t1,0x6
    80204016:	29e30067          	jr	670(t1) # 8020a2b0 <_ZN66_$LT$virtio_drivers..hal..DMA$u20$as$u20$core..ops..drop..Drop$GT$4drop17hc50a4f2a1a276e4bE>

000000008020401a <_ZN4spin4once13Once$LT$T$GT$9call_once17h11dc0848b3e7e839E>:
    8020401a:	7129                	addi	sp,sp,-320
    8020401c:	fe06                	sd	ra,312(sp)
    8020401e:	fa22                	sd	s0,304(sp)
    80204020:	f626                	sd	s1,296(sp)
    80204022:	f24a                	sd	s2,288(sp)
    80204024:	ee4e                	sd	s3,280(sp)
    80204026:	ea52                	sd	s4,272(sp)
    80204028:	0280                	addi	s0,sp,320
    8020402a:	89aa                	mv	s3,a0
    8020402c:	0330000f          	fence	rw,rw
    80204030:	6108                	ld	a0,0(a0)
    80204032:	0230000f          	fence	r,rw
    80204036:	e97d                	bnez	a0,8020412c <.LBB1_18+0x28>
    80204038:	4485                	li	s1,1
    8020403a:	1609b52f          	lr.d.aqrl	a0,(s3)
    8020403e:	e501                	bnez	a0,80204046 <_ZN4spin4once13Once$LT$T$GT$9call_once17h11dc0848b3e7e839E+0x2c>
    80204040:	1e99b5af          	sc.d.aqrl	a1,s1,(s3)
    80204044:	f9fd                	bnez	a1,8020403a <_ZN4spin4once13Once$LT$T$GT$9call_once17h11dc0848b3e7e839E+0x20>
    80204046:	e17d                	bnez	a0,8020412c <.LBB1_18+0x28>
    80204048:	ed343423          	sd	s3,-312(s0)
    8020404c:	ec940823          	sb	s1,-304(s0)
    80204050:	f7840913          	addi	s2,s0,-136
    80204054:	100015b7          	lui	a1,0x10001
    80204058:	854a                	mv	a0,s2
    8020405a:	00005097          	auipc	ra,0x5
    8020405e:	baa080e7          	jalr	-1110(ra) # 80208c04 <_ZN14virtio_drivers3blk9VirtIOBlk3new17hc9c2e32364f964f0E>
    80204062:	f7844503          	lbu	a0,-136(s0)
    80204066:	12950b63          	beq	a0,s1,8020419c <.LBB1_22+0x14>
    8020406a:	00890593          	addi	a1,s2,8
    8020406e:	f3040493          	addi	s1,s0,-208
    80204072:	04800613          	li	a2,72
    80204076:	8526                	mv	a0,s1
    80204078:	0000c097          	auipc	ra,0xc
    8020407c:	dce080e7          	jalr	-562(ra) # 8020fe46 <memcpy>
    80204080:	01090513          	addi	a0,s2,16
    80204084:	f8043023          	sd	zero,-128(s0)
    80204088:	f6043c23          	sd	zero,-136(s0)
    8020408c:	04800613          	li	a2,72
    80204090:	85a6                	mv	a1,s1
    80204092:	0000c097          	auipc	ra,0xc
    80204096:	db4080e7          	jalr	-588(ra) # 8020fe46 <memcpy>
    8020409a:	ed840513          	addi	a0,s0,-296
    8020409e:	05800613          	li	a2,88
    802040a2:	85ca                	mv	a1,s2
    802040a4:	0000c097          	auipc	ra,0xc
    802040a8:	da2080e7          	jalr	-606(ra) # 8020fe46 <memcpy>
    802040ac:	06800513          	li	a0,104
    802040b0:	45a1                	li	a1,8
    802040b2:	00001097          	auipc	ra,0x1
    802040b6:	794080e7          	jalr	1940(ra) # 80205846 <__rust_alloc>
    802040ba:	10050a63          	beqz	a0,802041ce <.LBB1_25+0x1a>
    802040be:	892a                	mv	s2,a0
    802040c0:	4a05                	li	s4,1
    802040c2:	01453023          	sd	s4,0(a0)
    802040c6:	01453423          	sd	s4,8(a0)
    802040ca:	0541                	addi	a0,a0,16
    802040cc:	ed840593          	addi	a1,s0,-296
    802040d0:	05800613          	li	a2,88
    802040d4:	0000c097          	auipc	ra,0xc
    802040d8:	d72080e7          	jalr	-654(ra) # 8020fe46 <memcpy>
    802040dc:	0089b503          	ld	a0,8(s3)
    802040e0:	00898493          	addi	s1,s3,8
    802040e4:	cd11                	beqz	a0,80204100 <_ZN4spin4once13Once$LT$T$GT$9call_once17h11dc0848b3e7e839E+0xe6>
    802040e6:	414005b3          	neg	a1,s4
    802040ea:	02b5352f          	amoadd.d.rl	a0,a1,(a0)
    802040ee:	01451963          	bne	a0,s4,80204100 <_ZN4spin4once13Once$LT$T$GT$9call_once17h11dc0848b3e7e839E+0xe6>
    802040f2:	0230000f          	fence	r,rw
    802040f6:	8526                	mv	a0,s1
    802040f8:	fffff097          	auipc	ra,0xfffff
    802040fc:	24a080e7          	jalr	586(ra) # 80203342 <_ZN5alloc4sync12Arc$LT$T$GT$9drop_slow17h6eb67771cee7ffacE>
    80204100:	0129b423          	sd	s2,8(s3)

0000000080204104 <.LBB1_18>:
    80204104:	0000d517          	auipc	a0,0xd
    80204108:	2ec50513          	addi	a0,a0,748 # 802113f0 <anon.fbc41f5d8c889602c028d9a5eee510a5.52.llvm.6653314557508847139>
    8020410c:	00a9b823          	sd	a0,16(s3)
    80204110:	ec040823          	sb	zero,-304(s0)
    80204114:	0310000f          	fence	rw,w
    80204118:	4509                	li	a0,2
    8020411a:	00a9b023          	sd	a0,0(s3)
    8020411e:	ec840513          	addi	a0,s0,-312
    80204122:	00008097          	auipc	ra,0x8
    80204126:	58a080e7          	jalr	1418(ra) # 8020c6ac <_ZN60_$LT$spin..once..Finish$u20$as$u20$core..ops..drop..Drop$GT$4drop17h05e01cfad6791585E>
    8020412a:	a01d                	j	80204150 <.LBB1_18+0x4c>
    8020412c:	4585                	li	a1,1
    8020412e:	00a5cc63          	blt	a1,a0,80204146 <.LBB1_18+0x42>
    80204132:	02b51863          	bne	a0,a1,80204162 <.LBB1_19>
    80204136:	0330000f          	fence	rw,rw
    8020413a:	0009b503          	ld	a0,0(s3)
    8020413e:	0230000f          	fence	r,rw
    80204142:	fea5d8e3          	bge	a1,a0,80204132 <.LBB1_18+0x2e>
    80204146:	4589                	li	a1,2
    80204148:	02b51c63          	bne	a0,a1,80204180 <.LBB1_21>
    8020414c:	00898493          	addi	s1,s3,8
    80204150:	8526                	mv	a0,s1
    80204152:	6a52                	ld	s4,272(sp)
    80204154:	69f2                	ld	s3,280(sp)
    80204156:	7912                	ld	s2,288(sp)
    80204158:	74b2                	ld	s1,296(sp)
    8020415a:	7452                	ld	s0,304(sp)
    8020415c:	70f2                	ld	ra,312(sp)
    8020415e:	6131                	addi	sp,sp,320
    80204160:	8082                	ret

0000000080204162 <.LBB1_19>:
    80204162:	0000d517          	auipc	a0,0xd
    80204166:	24e50513          	addi	a0,a0,590 # 802113b0 <anon.fbc41f5d8c889602c028d9a5eee510a5.4.llvm.6653314557508847139>

000000008020416a <.LBB1_20>:
    8020416a:	0000d617          	auipc	a2,0xd
    8020416e:	26e60613          	addi	a2,a2,622 # 802113d8 <anon.fbc41f5d8c889602c028d9a5eee510a5.5.llvm.6653314557508847139>
    80204172:	02800593          	li	a1,40
    80204176:	00009097          	auipc	ra,0x9
    8020417a:	8f8080e7          	jalr	-1800(ra) # 8020ca6e <_ZN4core9panicking5panic17h4214b4eed8d3f37fE>
	...

0000000080204180 <.LBB1_21>:
    80204180:	0000d517          	auipc	a0,0xd
    80204184:	1a050513          	addi	a0,a0,416 # 80211320 <anon.fbc41f5d8c889602c028d9a5eee510a5.1.llvm.6653314557508847139>

0000000080204188 <.LBB1_22>:
    80204188:	0000d617          	auipc	a2,0xd
    8020418c:	21060613          	addi	a2,a2,528 # 80211398 <anon.fbc41f5d8c889602c028d9a5eee510a5.3.llvm.6653314557508847139>
    80204190:	45c5                	li	a1,17
    80204192:	00009097          	auipc	ra,0x9
    80204196:	8dc080e7          	jalr	-1828(ra) # 8020ca6e <_ZN4core9panicking5panic17h4214b4eed8d3f37fE>
    8020419a:	0000                	unimp
    8020419c:	f7940503          	lb	a0,-135(s0)
    802041a0:	eca40c23          	sb	a0,-296(s0)

00000000802041a4 <.LBB1_23>:
    802041a4:	0000d517          	auipc	a0,0xd
    802041a8:	fac50513          	addi	a0,a0,-84 # 80211150 <anon.0e146a1aea7c7f9de08538e159dfbefd.4.llvm.2513489228613536760>

00000000802041ac <.LBB1_24>:
    802041ac:	0000d697          	auipc	a3,0xd
    802041b0:	f8468693          	addi	a3,a3,-124 # 80211130 <anon.0e146a1aea7c7f9de08538e159dfbefd.3.llvm.2513489228613536760>

00000000802041b4 <.LBB1_25>:
    802041b4:	0000d717          	auipc	a4,0xd
    802041b8:	10c70713          	addi	a4,a4,268 # 802112c0 <anon.0e146a1aea7c7f9de08538e159dfbefd.45.llvm.2513489228613536760>
    802041bc:	ed840613          	addi	a2,s0,-296
    802041c0:	02b00593          	li	a1,43
    802041c4:	00009097          	auipc	ra,0x9
    802041c8:	84a080e7          	jalr	-1974(ra) # 8020ca0e <_ZN4core6option18expect_none_failed17hf4b8b266798017eaE>
    802041cc:	0000                	unimp
    802041ce:	06800513          	li	a0,104
    802041d2:	45a1                	li	a1,8
    802041d4:	00008097          	auipc	ra,0x8
    802041d8:	4f8080e7          	jalr	1272(ra) # 8020c6cc <_ZN5alloc5alloc18handle_alloc_error17hd88389f3109c4dfdE>
	...

00000000802041de <_ZN4spin4once13Once$LT$T$GT$9call_once17h3066fe8e558c7af5E>:
    802041de:	711d                	addi	sp,sp,-96
    802041e0:	ec86                	sd	ra,88(sp)
    802041e2:	e8a2                	sd	s0,80(sp)
    802041e4:	e4a6                	sd	s1,72(sp)
    802041e6:	e0ca                	sd	s2,64(sp)
    802041e8:	fc4e                	sd	s3,56(sp)
    802041ea:	1080                	addi	s0,sp,96
    802041ec:	892a                	mv	s2,a0
    802041ee:	0330000f          	fence	rw,rw
    802041f2:	6108                	ld	a0,0(a0)
    802041f4:	0230000f          	fence	r,rw
    802041f8:	e955                	bnez	a0,802042ac <_ZN4spin4once13Once$LT$T$GT$9call_once17h3066fe8e558c7af5E+0xce>
    802041fa:	4585                	li	a1,1
    802041fc:	1609352f          	lr.d.aqrl	a0,(s2)
    80204200:	e501                	bnez	a0,80204208 <_ZN4spin4once13Once$LT$T$GT$9call_once17h3066fe8e558c7af5E+0x2a>
    80204202:	1eb9362f          	sc.d.aqrl	a2,a1,(s2)
    80204206:	fa7d                	bnez	a2,802041fc <_ZN4spin4once13Once$LT$T$GT$9call_once17h3066fe8e558c7af5E+0x1e>
    80204208:	e155                	bnez	a0,802042ac <_ZN4spin4once13Once$LT$T$GT$9call_once17h3066fe8e558c7af5E+0xce>
    8020420a:	fb243423          	sd	s2,-88(s0)
    8020420e:	fab40823          	sb	a1,-80(s0)
    80204212:	fc043423          	sd	zero,-56(s0)
    80204216:	fc043823          	sd	zero,-48(s0)
    8020421a:	fa043c23          	sd	zero,-72(s0)
    8020421e:	fc043023          	sd	zero,-64(s0)
    80204222:	00893503          	ld	a0,8(s2)
    80204226:	cd1d                	beqz	a0,80204264 <_ZN4spin4once13Once$LT$T$GT$9call_once17h3066fe8e558c7af5E+0x86>
    80204228:	03093503          	ld	a0,48(s2)
    8020422c:	cd19                	beqz	a0,8020424a <_ZN4spin4once13Once$LT$T$GT$9call_once17h3066fe8e558c7af5E+0x6c>
    8020422e:	02093583          	ld	a1,32(s2)
    80204232:	00351493          	slli	s1,a0,0x3
    80204236:	6188                	ld	a0,0(a1)
    80204238:	00858993          	addi	s3,a1,8 # 10001008 <.Lline_table_start0+0xffe1aef>
    8020423c:	00001097          	auipc	ra,0x1
    80204240:	9b4080e7          	jalr	-1612(ra) # 80204bf0 <_ZN2os2mm15frame_allocator13frame_dealloc17h4828e963a0fceefbE>
    80204244:	14e1                	addi	s1,s1,-8
    80204246:	85ce                	mv	a1,s3
    80204248:	f4fd                	bnez	s1,80204236 <_ZN4spin4once13Once$LT$T$GT$9call_once17h3066fe8e558c7af5E+0x58>
    8020424a:	02893503          	ld	a0,40(s2)
    8020424e:	c919                	beqz	a0,80204264 <_ZN4spin4once13Once$LT$T$GT$9call_once17h3066fe8e558c7af5E+0x86>
    80204250:	00351593          	slli	a1,a0,0x3
    80204254:	c981                	beqz	a1,80204264 <_ZN4spin4once13Once$LT$T$GT$9call_once17h3066fe8e558c7af5E+0x86>
    80204256:	02093503          	ld	a0,32(s2)
    8020425a:	4621                	li	a2,8
    8020425c:	00001097          	auipc	ra,0x1
    80204260:	5f2080e7          	jalr	1522(ra) # 8020584e <__rust_dealloc>
    80204264:	4505                	li	a0,1
    80204266:	00a93423          	sd	a0,8(s2)
    8020426a:	fc843503          	ld	a0,-56(s0)
    8020426e:	00a93823          	sd	a0,16(s2)
    80204272:	fd043503          	ld	a0,-48(s0)
    80204276:	00a93c23          	sd	a0,24(s2)
    8020427a:	4521                	li	a0,8
    8020427c:	02a93023          	sd	a0,32(s2)
    80204280:	fc043503          	ld	a0,-64(s0)
    80204284:	02a93823          	sd	a0,48(s2)
    80204288:	fb843503          	ld	a0,-72(s0)
    8020428c:	02a93423          	sd	a0,40(s2)
    80204290:	fa040823          	sb	zero,-80(s0)
    80204294:	0310000f          	fence	rw,w
    80204298:	4509                	li	a0,2
    8020429a:	00a93023          	sd	a0,0(s2)
    8020429e:	fa840513          	addi	a0,s0,-88
    802042a2:	00008097          	auipc	ra,0x8
    802042a6:	40a080e7          	jalr	1034(ra) # 8020c6ac <_ZN60_$LT$spin..once..Finish$u20$as$u20$core..ops..drop..Drop$GT$4drop17h05e01cfad6791585E>
    802042aa:	a00d                	j	802042cc <_ZN4spin4once13Once$LT$T$GT$9call_once17h3066fe8e558c7af5E+0xee>
    802042ac:	4585                	li	a1,1
    802042ae:	00a5cc63          	blt	a1,a0,802042c6 <_ZN4spin4once13Once$LT$T$GT$9call_once17h3066fe8e558c7af5E+0xe8>
    802042b2:	02b51663          	bne	a0,a1,802042de <.LBB2_17>
    802042b6:	0330000f          	fence	rw,rw
    802042ba:	00093503          	ld	a0,0(s2)
    802042be:	0230000f          	fence	r,rw
    802042c2:	fea5d8e3          	bge	a1,a0,802042b2 <_ZN4spin4once13Once$LT$T$GT$9call_once17h3066fe8e558c7af5E+0xd4>
    802042c6:	4589                	li	a1,2
    802042c8:	02b51a63          	bne	a0,a1,802042fc <.LBB2_19>
    802042cc:	01090513          	addi	a0,s2,16
    802042d0:	79e2                	ld	s3,56(sp)
    802042d2:	6906                	ld	s2,64(sp)
